
steer.elf:     file format elf32-littlearm

Sections:
Idx Name          Size      VMA       LMA       File off  Algn
  0 .isr_vector   0000010c  08000000  08000000  00001000  2**0
                  CONTENTS, ALLOC, LOAD, READONLY, DATA
  1 .text         00002354  0800010c  0800010c  0000110c  2**2
                  CONTENTS, ALLOC, LOAD, READONLY, CODE
  2 .rodata       00000274  08002460  08002460  00003460  2**1
                  CONTENTS, ALLOC, LOAD, READONLY, DATA
  3 .ARM.extab    00000000  080026d4  080026d4  000040b0  2**0
                  CONTENTS
  4 .ARM          00000000  080026d4  080026d4  000040b0  2**0
                  CONTENTS
  5 .preinit_array 00000000  080026d4  080026d4  000040b0  2**0
                  CONTENTS, ALLOC, LOAD, DATA
  6 .init_array   00000004  080026d4  080026d4  000036d4  2**2
                  CONTENTS, ALLOC, LOAD, DATA
  7 .fini_array   00000004  080026d8  080026d8  000036d8  2**2
                  CONTENTS, ALLOC, LOAD, DATA
  8 .data         000000b0  20000000  080026dc  00004000  2**2
                  CONTENTS, ALLOC, LOAD, DATA
  9 .bss          000002a0  200000b0  0800278c  000040b0  2**2
                  ALLOC
 10 ._user_heap_stack 00000600  20000350  0800278c  00004350  2**0
                  ALLOC
 11 .ARM.attributes 00000029  00000000  00000000  000040b0  2**0
                  CONTENTS, READONLY
 12 .comment      00000043  00000000  00000000  000040d9  2**0
                  CONTENTS, READONLY
 13 .debug_frame  000005b4  00000000  00000000  0000411c  2**2
                  CONTENTS, READONLY, DEBUGGING, OCTETS

Disassembly of section .text:

0800010c <__do_global_dtors_aux>:
 800010c:	b510      	push	{r4, lr}
 800010e:	4c05      	ldr	r4, [pc, #20]	@ (8000124 <__do_global_dtors_aux+0x18>)
 8000110:	7823      	ldrb	r3, [r4, #0]
 8000112:	b933      	cbnz	r3, 8000122 <__do_global_dtors_aux+0x16>
 8000114:	4b04      	ldr	r3, [pc, #16]	@ (8000128 <__do_global_dtors_aux+0x1c>)
 8000116:	b113      	cbz	r3, 800011e <__do_global_dtors_aux+0x12>
 8000118:	4804      	ldr	r0, [pc, #16]	@ (800012c <__do_global_dtors_aux+0x20>)
 800011a:	f3af 8000 	nop.w
 800011e:	2301      	movs	r3, #1
 8000120:	7023      	strb	r3, [r4, #0]
 8000122:	bd10      	pop	{r4, pc}
 8000124:	200000b0 	.word	0x200000b0
 8000128:	00000000 	.word	0x00000000
 800012c:	08002448 	.word	0x08002448

08000130 <frame_dummy>:
 8000130:	b508      	push	{r3, lr}
 8000132:	4b03      	ldr	r3, [pc, #12]	@ (8000140 <frame_dummy+0x10>)
 8000134:	b11b      	cbz	r3, 800013e <frame_dummy+0xe>
 8000136:	4903      	ldr	r1, [pc, #12]	@ (8000144 <frame_dummy+0x14>)
 8000138:	4803      	ldr	r0, [pc, #12]	@ (8000148 <frame_dummy+0x18>)
 800013a:	f3af 8000 	nop.w
 800013e:	bd08      	pop	{r3, pc}
 8000140:	00000000 	.word	0x00000000
 8000144:	200000b4 	.word	0x200000b4
 8000148:	08002448 	.word	0x08002448

0800014c <MX_GPIO_Init>:
 800014c:	e92d 43f0 	stmdb	sp!, {r4, r5, r6, r7, r8, r9, lr}
 8000150:	2510      	movs	r5, #16
 8000152:	b089      	sub	sp, #36	@ 0x24
 8000154:	462a      	mov	r2, r5
 8000156:	2100      	movs	r1, #0
 8000158:	eb0d 0005 	add.w	r0, sp, r5
 800015c:	f001 fce6 	bl	8001b2c <memset>
 8000160:	4b24      	ldr	r3, [pc, #144]	@ (80001f4 <MX_GPIO_Init+0xa8>)
 8000162:	2402      	movs	r4, #2
 8000164:	699a      	ldr	r2, [r3, #24]
 8000166:	f04f 0801 	mov.w	r8, #1
 800016a:	2700      	movs	r7, #0
 800016c:	432a      	orrs	r2, r5
 800016e:	619a      	str	r2, [r3, #24]
 8000170:	699a      	ldr	r2, [r3, #24]
 8000172:	f8df 9084 	ldr.w	r9, [pc, #132]	@ 80001f8 <MX_GPIO_Init+0xac>
 8000176:	402a      	ands	r2, r5
 8000178:	9200      	str	r2, [sp, #0]
 800017a:	9a00      	ldr	r2, [sp, #0]
 800017c:	699a      	ldr	r2, [r3, #24]
 800017e:	4e1f      	ldr	r6, [pc, #124]	@ (80001fc <MX_GPIO_Init+0xb0>)
 8000180:	f042 0220 	orr.w	r2, r2, #32
 8000184:	619a      	str	r2, [r3, #24]
 8000186:	699a      	ldr	r2, [r3, #24]
 8000188:	4648      	mov	r0, r9
 800018a:	f002 0220 	and.w	r2, r2, #32
 800018e:	9201      	str	r2, [sp, #4]
 8000190:	9a01      	ldr	r2, [sp, #4]
 8000192:	699a      	ldr	r2, [r3, #24]
 8000194:	2102      	movs	r1, #2
 8000196:	f042 0204 	orr.w	r2, r2, #4
 800019a:	619a      	str	r2, [r3, #24]
 800019c:	699a      	ldr	r2, [r3, #24]
 800019e:	f002 0204 	and.w	r2, r2, #4
 80001a2:	9202      	str	r2, [sp, #8]
 80001a4:	9a02      	ldr	r2, [sp, #8]
 80001a6:	699a      	ldr	r2, [r3, #24]
 80001a8:	f042 0208 	orr.w	r2, r2, #8
 80001ac:	619a      	str	r2, [r3, #24]
 80001ae:	699b      	ldr	r3, [r3, #24]
 80001b0:	2200      	movs	r2, #0
 80001b2:	f003 0308 	and.w	r3, r3, #8
 80001b6:	9303      	str	r3, [sp, #12]
 80001b8:	9b03      	ldr	r3, [sp, #12]
 80001ba:	f000 fdbd 	bl	8000d38 <HAL_GPIO_WritePin>
 80001be:	2200      	movs	r2, #0
 80001c0:	4629      	mov	r1, r5
 80001c2:	4630      	mov	r0, r6
 80001c4:	f000 fdb8 	bl	8000d38 <HAL_GPIO_WritePin>
 80001c8:	4648      	mov	r0, r9
 80001ca:	eb0d 0105 	add.w	r1, sp, r5
 80001ce:	e9cd 4804 	strd	r4, r8, [sp, #16]
 80001d2:	e9cd 7406 	strd	r7, r4, [sp, #24]
 80001d6:	f000 fcdb 	bl	8000b90 <HAL_GPIO_Init>
 80001da:	4630      	mov	r0, r6
 80001dc:	eb0d 0105 	add.w	r1, sp, r5
 80001e0:	e9cd 5804 	strd	r5, r8, [sp, #16]
 80001e4:	e9cd 7406 	strd	r7, r4, [sp, #24]
 80001e8:	f000 fcd2 	bl	8000b90 <HAL_GPIO_Init>
 80001ec:	b009      	add	sp, #36	@ 0x24
 80001ee:	e8bd 83f0 	ldmia.w	sp!, {r4, r5, r6, r7, r8, r9, pc}
 80001f2:	bf00      	nop
 80001f4:	40021000 	.word	0x40021000
 80001f8:	40010800 	.word	0x40010800
 80001fc:	40010c00 	.word	0x40010c00

08000200 <SystemClock_Config>:
 8000200:	b510      	push	{r4, lr}
 8000202:	b090      	sub	sp, #64	@ 0x40
 8000204:	2214      	movs	r2, #20
 8000206:	2100      	movs	r1, #0
 8000208:	a808      	add	r0, sp, #32
 800020a:	f001 fc8f 	bl	8001b2c <memset>
 800020e:	2214      	movs	r2, #20
 8000210:	2100      	movs	r1, #0
 8000212:	a801      	add	r0, sp, #4
 8000214:	f001 fc8a 	bl	8001b2c <memset>
 8000218:	2402      	movs	r4, #2
 800021a:	f44f 3380 	mov.w	r3, #65536	@ 0x10000
 800021e:	2201      	movs	r2, #1
 8000220:	e9cd 430d 	strd	r4, r3, [sp, #52]	@ 0x34
 8000224:	e9cd 2306 	strd	r2, r3, [sp, #24]
 8000228:	f44f 13e0 	mov.w	r3, #1835008	@ 0x1c0000
 800022c:	a806      	add	r0, sp, #24
 800022e:	920a      	str	r2, [sp, #40]	@ 0x28
 8000230:	930f      	str	r3, [sp, #60]	@ 0x3c
 8000232:	f000 fd87 	bl	8000d44 <HAL_RCC_OscConfig>
 8000236:	b108      	cbz	r0, 800023c <SystemClock_Config+0x3c>
 8000238:	b672      	cpsid	i
 800023a:	e7fe      	b.n	800023a <SystemClock_Config+0x3a>
 800023c:	230f      	movs	r3, #15
 800023e:	e9cd 3401 	strd	r3, r4, [sp, #4]
 8000242:	f44f 6380 	mov.w	r3, #1024	@ 0x400
 8000246:	9003      	str	r0, [sp, #12]
 8000248:	e9cd 3004 	strd	r3, r0, [sp, #16]
 800024c:	4621      	mov	r1, r4
 800024e:	a801      	add	r0, sp, #4
 8000250:	f000 ff3a 	bl	80010c8 <HAL_RCC_ClockConfig>
 8000254:	b108      	cbz	r0, 800025a <SystemClock_Config+0x5a>
 8000256:	b672      	cpsid	i
 8000258:	e7fe      	b.n	8000258 <SystemClock_Config+0x58>
 800025a:	b010      	add	sp, #64	@ 0x40
 800025c:	bd10      	pop	{r4, pc}
	...

08000260 <xlSeriesSetDirection>:
 8000260:	4602      	mov	r2, r0
 8000262:	b100      	cbz	r0, 8000266 <xlSeriesSetDirection+0x6>
 8000264:	2201      	movs	r2, #1
 8000266:	2102      	movs	r1, #2
 8000268:	4801      	ldr	r0, [pc, #4]	@ (8000270 <xlSeriesSetDirection+0x10>)
 800026a:	f000 bd65 	b.w	8000d38 <HAL_GPIO_WritePin>
 800026e:	bf00      	nop
 8000270:	40010800 	.word	0x40010800

08000274 <xlSeriesSendFrame>:
 8000274:	b570      	push	{r4, r5, r6, lr}
 8000276:	4604      	mov	r4, r0
 8000278:	460d      	mov	r5, r1
 800027a:	4616      	mov	r6, r2
 800027c:	2102      	movs	r1, #2
 800027e:	2201      	movs	r2, #1
 8000280:	4809      	ldr	r0, [pc, #36]	@ (80002a8 <xlSeriesSendFrame+0x34>)
 8000282:	f000 fd59 	bl	8000d38 <HAL_GPIO_WritePin>
 8000286:	2364      	movs	r3, #100	@ 0x64
 8000288:	4632      	mov	r2, r6
 800028a:	4629      	mov	r1, r5
 800028c:	4620      	mov	r0, r4
 800028e:	f001 f9d0 	bl	8001632 <HAL_UART_Transmit>
 8000292:	4620      	mov	r0, r4
 8000294:	f001 fc22 	bl	8001adc <HAL_UART_GetState>
 8000298:	2820      	cmp	r0, #32
 800029a:	d1fa      	bne.n	8000292 <xlSeriesSendFrame+0x1e>
 800029c:	e8bd 4070 	ldmia.w	sp!, {r4, r5, r6, lr}
 80002a0:	2000      	movs	r0, #0
 80002a2:	f7ff bfdd 	b.w	8000260 <xlSeriesSetDirection>
 80002a6:	bf00      	nop
 80002a8:	40010800 	.word	0x40010800

080002ac <updateCRC>:
 80002ac:	b510      	push	{r4, lr}
 80002ae:	4c07      	ldr	r4, [pc, #28]	@ (80002cc <updateCRC+0x20>)
 80002b0:	440a      	add	r2, r1
 80002b2:	4291      	cmp	r1, r2
 80002b4:	d100      	bne.n	80002b8 <updateCRC+0xc>
 80002b6:	bd10      	pop	{r4, pc}
 80002b8:	f811 3b01 	ldrb.w	r3, [r1], #1
 80002bc:	ea83 2310 	eor.w	r3, r3, r0, lsr #8
 80002c0:	f834 3013 	ldrh.w	r3, [r4, r3, lsl #1]
 80002c4:	0200      	lsls	r0, r0, #8
 80002c6:	b280      	uxth	r0, r0
 80002c8:	4058      	eors	r0, r3
 80002ca:	e7f2      	b.n	80002b2 <updateCRC+0x6>
 80002cc:	080024a8 	.word	0x080024a8

080002d0 <xlSeriesLed>:
 80002d0:	b510      	push	{r4, lr}
 80002d2:	4c0b      	ldr	r4, [pc, #44]	@ (8000300 <xlSeriesLed+0x30>)
 80002d4:	7120      	strb	r0, [r4, #4]
 80002d6:	7222      	strb	r2, [r4, #8]
 80002d8:	72a1      	strb	r1, [r4, #10]
 80002da:	220b      	movs	r2, #11
 80002dc:	4621      	mov	r1, r4
 80002de:	2000      	movs	r0, #0
 80002e0:	f7ff ffe4 	bl	80002ac <updateCRC>
 80002e4:	72e0      	strb	r0, [r4, #11]
 80002e6:	0a00      	lsrs	r0, r0, #8
 80002e8:	7320      	strb	r0, [r4, #12]
 80002ea:	4621      	mov	r1, r4
 80002ec:	4805      	ldr	r0, [pc, #20]	@ (8000304 <xlSeriesLed+0x34>)
 80002ee:	220d      	movs	r2, #13
 80002f0:	f7ff ffc0 	bl	8000274 <xlSeriesSendFrame>
 80002f4:	e8bd 4010 	ldmia.w	sp!, {r4, lr}
 80002f8:	2001      	movs	r0, #1
 80002fa:	f000 bb6d 	b.w	80009d8 <HAL_Delay>
 80002fe:	bf00      	nop
 8000300:	20000037 	.word	0x20000037
 8000304:	20000174 	.word	0x20000174

08000308 <xlSeriesControlMode>:
 8000308:	b510      	push	{r4, lr}
 800030a:	4c0a      	ldr	r4, [pc, #40]	@ (8000334 <xlSeriesControlMode+0x2c>)
 800030c:	220b      	movs	r2, #11
 800030e:	7120      	strb	r0, [r4, #4]
 8000310:	72a1      	strb	r1, [r4, #10]
 8000312:	2000      	movs	r0, #0
 8000314:	4621      	mov	r1, r4
 8000316:	f7ff ffc9 	bl	80002ac <updateCRC>
 800031a:	72e0      	strb	r0, [r4, #11]
 800031c:	0a00      	lsrs	r0, r0, #8
 800031e:	7320      	strb	r0, [r4, #12]
 8000320:	4621      	mov	r1, r4
 8000322:	4805      	ldr	r0, [pc, #20]	@ (8000338 <xlSeriesControlMode+0x30>)
 8000324:	220d      	movs	r2, #13
 8000326:	f7ff ffa5 	bl	8000274 <xlSeriesSendFrame>
 800032a:	e8bd 4010 	ldmia.w	sp!, {r4, lr}
 800032e:	2001      	movs	r0, #1
 8000330:	f000 bb52 	b.w	80009d8 <HAL_Delay>
 8000334:	2000002a 	.word	0x2000002a
 8000338:	20000174 	.word	0x20000174

0800033c <xlSeriesTorque>:
 800033c:	b510      	push	{r4, lr}
 800033e:	4c0b      	ldr	r4, [pc, #44]	@ (800036c <xlSeriesTorque+0x30>)
 8000340:	7120      	strb	r0, [r4, #4]
 8000342:	7222      	strb	r2, [r4, #8]
 8000344:	72a1      	strb	r1, [r4, #10]
 8000346:	220b      	movs	r2, #11
 8000348:	4621      	mov	r1, r4
 800034a:	2000      	movs	r0, #0
 800034c:	f7ff ffae 	bl	80002ac <updateCRC>
 8000350:	72e0      	strb	r0, [r4, #11]
 8000352:	0a00      	lsrs	r0, r0, #8
 8000354:	7320      	strb	r0, [r4, #12]
 8000356:	4621      	mov	r1, r4
 8000358:	4805      	ldr	r0, [pc, #20]	@ (8000370 <xlSeriesTorque+0x34>)
 800035a:	220d      	movs	r2, #13
 800035c:	f7ff ff8a 	bl	8000274 <xlSeriesSendFrame>
 8000360:	e8bd 4010 	ldmia.w	sp!, {r4, lr}
 8000364:	2001      	movs	r0, #1
 8000366:	f000 bb37 	b.w	80009d8 <HAL_Delay>
 800036a:	bf00      	nop
 800036c:	20000044 	.word	0x20000044
 8000370:	20000174 	.word	0x20000174

08000374 <xl320SendPosition>:
 8000374:	b510      	push	{r4, lr}
 8000376:	4c0b      	ldr	r4, [pc, #44]	@ (80003a4 <xl320SendPosition+0x30>)
 8000378:	220c      	movs	r2, #12
 800037a:	72a1      	strb	r1, [r4, #10]
 800037c:	0a09      	lsrs	r1, r1, #8
 800037e:	7120      	strb	r0, [r4, #4]
 8000380:	72e1      	strb	r1, [r4, #11]
 8000382:	2000      	movs	r0, #0
 8000384:	4621      	mov	r1, r4
 8000386:	f7ff ff91 	bl	80002ac <updateCRC>
 800038a:	7320      	strb	r0, [r4, #12]
 800038c:	0a00      	lsrs	r0, r0, #8
 800038e:	7360      	strb	r0, [r4, #13]
 8000390:	4621      	mov	r1, r4
 8000392:	4805      	ldr	r0, [pc, #20]	@ (80003a8 <xl320SendPosition+0x34>)
 8000394:	220e      	movs	r2, #14
 8000396:	f7ff ff6d 	bl	8000274 <xlSeriesSendFrame>
 800039a:	e8bd 4010 	ldmia.w	sp!, {r4, lr}
 800039e:	2001      	movs	r0, #1
 80003a0:	f000 bb1a 	b.w	80009d8 <HAL_Delay>
 80003a4:	2000001c 	.word	0x2000001c
 80003a8:	20000174 	.word	0x20000174

080003ac <xl320SendMovingSpeed>:
 80003ac:	b510      	push	{r4, lr}
 80003ae:	4c0b      	ldr	r4, [pc, #44]	@ (80003dc <xl320SendMovingSpeed+0x30>)
 80003b0:	220c      	movs	r2, #12
 80003b2:	72a1      	strb	r1, [r4, #10]
 80003b4:	0a09      	lsrs	r1, r1, #8
 80003b6:	7120      	strb	r0, [r4, #4]
 80003b8:	72e1      	strb	r1, [r4, #11]
 80003ba:	2000      	movs	r0, #0
 80003bc:	4621      	mov	r1, r4
 80003be:	f7ff ff75 	bl	80002ac <updateCRC>
 80003c2:	7320      	strb	r0, [r4, #12]
 80003c4:	0a00      	lsrs	r0, r0, #8
 80003c6:	7360      	strb	r0, [r4, #13]
 80003c8:	4621      	mov	r1, r4
 80003ca:	4805      	ldr	r0, [pc, #20]	@ (80003e0 <xl320SendMovingSpeed+0x34>)
 80003cc:	220e      	movs	r2, #14
 80003ce:	f7ff ff51 	bl	8000274 <xlSeriesSendFrame>
 80003d2:	e8bd 4010 	ldmia.w	sp!, {r4, lr}
 80003d6:	2001      	movs	r0, #1
 80003d8:	f000 bafe 	b.w	80009d8 <HAL_Delay>
 80003dc:	2000000e 	.word	0x2000000e
 80003e0:	20000174 	.word	0x20000174

080003e4 <xlSeriesStart>:
 80003e4:	b508      	push	{r3, lr}
 80003e6:	2219      	movs	r2, #25
 80003e8:	2101      	movs	r1, #1
 80003ea:	2000      	movs	r0, #0
 80003ec:	f7ff ff70 	bl	80002d0 <xlSeriesLed>
 80003f0:	2064      	movs	r0, #100	@ 0x64
 80003f2:	f000 faf1 	bl	80009d8 <HAL_Delay>
 80003f6:	2100      	movs	r1, #0
 80003f8:	2218      	movs	r2, #24
 80003fa:	4608      	mov	r0, r1
 80003fc:	f7ff ff9e 	bl	800033c <xlSeriesTorque>
 8000400:	2064      	movs	r0, #100	@ 0x64
 8000402:	f000 fae9 	bl	80009d8 <HAL_Delay>
 8000406:	2102      	movs	r1, #2
 8000408:	2000      	movs	r0, #0
 800040a:	f7ff ff7d 	bl	8000308 <xlSeriesControlMode>
 800040e:	2064      	movs	r0, #100	@ 0x64
 8000410:	f000 fae2 	bl	80009d8 <HAL_Delay>
 8000414:	e8bd 4008 	ldmia.w	sp!, {r3, lr}
 8000418:	2164      	movs	r1, #100	@ 0x64
 800041a:	2000      	movs	r0, #0
 800041c:	f7ff bfc6 	b.w	80003ac <xl320SendMovingSpeed>

08000420 <Debug_Print>:
 8000420:	b538      	push	{r3, r4, r5, lr}
 8000422:	4604      	mov	r4, r0
 8000424:	460d      	mov	r5, r1
 8000426:	2201      	movs	r2, #1
 8000428:	2110      	movs	r1, #16
 800042a:	480b      	ldr	r0, [pc, #44]	@ (8000458 <Debug_Print+0x38>)
 800042c:	f000 fc84 	bl	8000d38 <HAL_GPIO_WritePin>
 8000430:	4621      	mov	r1, r4
 8000432:	2364      	movs	r3, #100	@ 0x64
 8000434:	462a      	mov	r2, r5
 8000436:	4809      	ldr	r0, [pc, #36]	@ (800045c <Debug_Print+0x3c>)
 8000438:	f001 f8fb 	bl	8001632 <HAL_UART_Transmit>
 800043c:	4c07      	ldr	r4, [pc, #28]	@ (800045c <Debug_Print+0x3c>)
 800043e:	4620      	mov	r0, r4
 8000440:	f001 fb4c 	bl	8001adc <HAL_UART_GetState>
 8000444:	2820      	cmp	r0, #32
 8000446:	d1fa      	bne.n	800043e <Debug_Print+0x1e>
 8000448:	e8bd 4038 	ldmia.w	sp!, {r3, r4, r5, lr}
 800044c:	2200      	movs	r2, #0
 800044e:	2110      	movs	r1, #16
 8000450:	4801      	ldr	r0, [pc, #4]	@ (8000458 <Debug_Print+0x38>)
 8000452:	f000 bc71 	b.w	8000d38 <HAL_GPIO_WritePin>
 8000456:	bf00      	nop
 8000458:	40010c00 	.word	0x40010c00
 800045c:	2000012c 	.word	0x2000012c

08000460 <xl320ReadPosition>:
 8000460:	b510      	push	{r4, lr}
 8000462:	4c15      	ldr	r4, [pc, #84]	@ (80004b8 <xl320ReadPosition+0x58>)
 8000464:	220c      	movs	r2, #12
 8000466:	4621      	mov	r1, r4
 8000468:	7120      	strb	r0, [r4, #4]
 800046a:	2000      	movs	r0, #0
 800046c:	f7ff ff1e 	bl	80002ac <updateCRC>
 8000470:	7320      	strb	r0, [r4, #12]
 8000472:	0a00      	lsrs	r0, r0, #8
 8000474:	4621      	mov	r1, r4
 8000476:	7360      	strb	r0, [r4, #13]
 8000478:	220e      	movs	r2, #14
 800047a:	4810      	ldr	r0, [pc, #64]	@ (80004bc <xl320ReadPosition+0x5c>)
 800047c:	f7ff fefa 	bl	8000274 <xlSeriesSendFrame>
 8000480:	220d      	movs	r2, #13
 8000482:	f44f 73fa 	mov.w	r3, #500	@ 0x1f4
 8000486:	490e      	ldr	r1, [pc, #56]	@ (80004c0 <xl320ReadPosition+0x60>)
 8000488:	480c      	ldr	r0, [pc, #48]	@ (80004bc <xl320ReadPosition+0x5c>)
 800048a:	f001 f920 	bl	80016ce <HAL_UART_Receive>
 800048e:	4c0d      	ldr	r4, [pc, #52]	@ (80004c4 <xl320ReadPosition+0x64>)
 8000490:	2219      	movs	r2, #25
 8000492:	b950      	cbnz	r0, 80004aa <xl320ReadPosition+0x4a>
 8000494:	2103      	movs	r1, #3
 8000496:	f7ff ff1b 	bl	80002d0 <xlSeriesLed>
 800049a:	2301      	movs	r3, #1
 800049c:	7023      	strb	r3, [r4, #0]
 800049e:	f44f 70fa 	mov.w	r0, #500	@ 0x1f4
 80004a2:	e8bd 4010 	ldmia.w	sp!, {r4, lr}
 80004a6:	f000 ba97 	b.w	80009d8 <HAL_Delay>
 80004aa:	2101      	movs	r1, #1
 80004ac:	2000      	movs	r0, #0
 80004ae:	f7ff ff0f 	bl	80002d0 <xlSeriesLed>
 80004b2:	2300      	movs	r3, #0
 80004b4:	e7f2      	b.n	800049c <xl320ReadPosition+0x3c>
 80004b6:	bf00      	nop
 80004b8:	20000000 	.word	0x20000000
 80004bc:	20000174 	.word	0x20000174
 80004c0:	200000cd 	.word	0x200000cd
 80004c4:	200000cc 	.word	0x200000cc

080004c8 <verifyPositionPacket>:
 80004c8:	7803      	ldrb	r3, [r0, #0]
 80004ca:	2bff      	cmp	r3, #255	@ 0xff
 80004cc:	d10d      	bne.n	80004ea <verifyPositionPacket+0x22>
 80004ce:	7843      	ldrb	r3, [r0, #1]
 80004d0:	2bff      	cmp	r3, #255	@ 0xff
 80004d2:	d10a      	bne.n	80004ea <verifyPositionPacket+0x22>
 80004d4:	7883      	ldrb	r3, [r0, #2]
 80004d6:	2bfd      	cmp	r3, #253	@ 0xfd
 80004d8:	d107      	bne.n	80004ea <verifyPositionPacket+0x22>
 80004da:	78c3      	ldrb	r3, [r0, #3]
 80004dc:	b92b      	cbnz	r3, 80004ea <verifyPositionPacket+0x22>
 80004de:	79c0      	ldrb	r0, [r0, #7]
 80004e0:	f1a0 0355 	sub.w	r3, r0, #85	@ 0x55
 80004e4:	4258      	negs	r0, r3
 80004e6:	4158      	adcs	r0, r3
 80004e8:	4770      	bx	lr
 80004ea:	2000      	movs	r0, #0
 80004ec:	4770      	bx	lr
	...

080004f0 <processPositionData>:
 80004f0:	b508      	push	{r3, lr}
 80004f2:	4a09      	ldr	r2, [pc, #36]	@ (8000518 <processPositionData+0x28>)
 80004f4:	7813      	ldrb	r3, [r2, #0]
 80004f6:	b143      	cbz	r3, 800050a <processPositionData+0x1a>
 80004f8:	4908      	ldr	r1, [pc, #32]	@ (800051c <processPositionData+0x2c>)
 80004fa:	4608      	mov	r0, r1
 80004fc:	f7ff ffe4 	bl	80004c8 <verifyPositionPacket>
 8000500:	b120      	cbz	r0, 800050c <processPositionData+0x1c>
 8000502:	2300      	movs	r3, #0
 8000504:	f8b1 0009 	ldrh.w	r0, [r1, #9]
 8000508:	7013      	strb	r3, [r2, #0]
 800050a:	bd08      	pop	{r3, pc}
 800050c:	2219      	movs	r2, #25
 800050e:	2102      	movs	r1, #2
 8000510:	f7ff fede 	bl	80002d0 <xlSeriesLed>
 8000514:	e7f9      	b.n	800050a <processPositionData+0x1a>
 8000516:	bf00      	nop
 8000518:	200000cc 	.word	0x200000cc
 800051c:	200000cd 	.word	0x200000cd

08000520 <main>:
 8000520:	b510      	push	{r4, lr}
 8000522:	b08e      	sub	sp, #56	@ 0x38
 8000524:	f000 fa34 	bl	8000990 <HAL_Init>
 8000528:	f7ff fe6a 	bl	8000200 <SystemClock_Config>
 800052c:	f7ff fe0e 	bl	800014c <MX_GPIO_Init>
 8000530:	f000 f8e4 	bl	80006fc <MX_USART1_UART_Init>
 8000534:	f000 f89a 	bl	800066c <MX_TIM1_Init>
 8000538:	f000 f8fc 	bl	8000734 <MX_USART2_UART_Init>
 800053c:	f000 f916 	bl	800076c <MX_USART3_UART_Init>
 8000540:	f7ff ff50 	bl	80003e4 <xlSeriesStart>
 8000544:	f240 2162 	movw	r1, #610	@ 0x262
 8000548:	2000      	movs	r0, #0
 800054a:	f7ff ff13 	bl	8000374 <xl320SendPosition>
 800054e:	2219      	movs	r2, #25
 8000550:	2106      	movs	r1, #6
 8000552:	2000      	movs	r0, #0
 8000554:	f7ff febc 	bl	80002d0 <xlSeriesLed>
 8000558:	f44f 60fa 	mov.w	r0, #2000	@ 0x7d0
 800055c:	f000 fa3c 	bl	80009d8 <HAL_Delay>
 8000560:	2000      	movs	r0, #0
 8000562:	f7ff ff7d 	bl	8000460 <xl320ReadPosition>
 8000566:	200a      	movs	r0, #10
 8000568:	f000 fa36 	bl	80009d8 <HAL_Delay>
 800056c:	f7ff ffc0 	bl	80004f0 <processPositionData>
 8000570:	2200      	movs	r2, #0
 8000572:	4603      	mov	r3, r0
 8000574:	4908      	ldr	r1, [pc, #32]	@ (8000598 <main+0x78>)
 8000576:	a801      	add	r0, sp, #4
 8000578:	f001 fab6 	bl	8001ae8 <siprintf>
 800057c:	4604      	mov	r4, r0
 800057e:	f44f 707a 	mov.w	r0, #1000	@ 0x3e8
 8000582:	f000 fa29 	bl	80009d8 <HAL_Delay>
 8000586:	4621      	mov	r1, r4
 8000588:	a801      	add	r0, sp, #4
 800058a:	f7ff ff49 	bl	8000420 <Debug_Print>
 800058e:	f44f 707a 	mov.w	r0, #1000	@ 0x3e8
 8000592:	f000 fa21 	bl	80009d8 <HAL_Delay>
 8000596:	e7f2      	b.n	800057e <main+0x5e>
 8000598:	08002460 	.word	0x08002460

0800059c <HAL_UART_RxCpltCallback>:
 800059c:	6802      	ldr	r2, [r0, #0]
 800059e:	4b03      	ldr	r3, [pc, #12]	@ (80005ac <HAL_UART_RxCpltCallback+0x10>)
 80005a0:	429a      	cmp	r2, r3
 80005a2:	bf02      	ittt	eq
 80005a4:	2201      	moveq	r2, #1
 80005a6:	4b02      	ldreq	r3, [pc, #8]	@ (80005b0 <HAL_UART_RxCpltCallback+0x14>)
 80005a8:	701a      	strbeq	r2, [r3, #0]
 80005aa:	4770      	bx	lr
 80005ac:	40004400 	.word	0x40004400
 80005b0:	200000cc 	.word	0x200000cc

080005b4 <Error_Handler>:
 80005b4:	b672      	cpsid	i
 80005b6:	e7fe      	b.n	80005b6 <Error_Handler+0x2>

080005b8 <HAL_MspInit>:
 80005b8:	4b0e      	ldr	r3, [pc, #56]	@ (80005f4 <HAL_MspInit+0x3c>)
 80005ba:	b082      	sub	sp, #8
 80005bc:	699a      	ldr	r2, [r3, #24]
 80005be:	f042 0201 	orr.w	r2, r2, #1
 80005c2:	619a      	str	r2, [r3, #24]
 80005c4:	699a      	ldr	r2, [r3, #24]
 80005c6:	f002 0201 	and.w	r2, r2, #1
 80005ca:	9200      	str	r2, [sp, #0]
 80005cc:	9a00      	ldr	r2, [sp, #0]
 80005ce:	69da      	ldr	r2, [r3, #28]
 80005d0:	f042 5280 	orr.w	r2, r2, #268435456	@ 0x10000000
 80005d4:	61da      	str	r2, [r3, #28]
 80005d6:	69db      	ldr	r3, [r3, #28]
 80005d8:	4a07      	ldr	r2, [pc, #28]	@ (80005f8 <HAL_MspInit+0x40>)
 80005da:	f003 5380 	and.w	r3, r3, #268435456	@ 0x10000000
 80005de:	9301      	str	r3, [sp, #4]
 80005e0:	9b01      	ldr	r3, [sp, #4]
 80005e2:	6853      	ldr	r3, [r2, #4]
 80005e4:	f023 63e0 	bic.w	r3, r3, #117440512	@ 0x7000000
 80005e8:	f043 7300 	orr.w	r3, r3, #33554432	@ 0x2000000
 80005ec:	6053      	str	r3, [r2, #4]
 80005ee:	b002      	add	sp, #8
 80005f0:	4770      	bx	lr
 80005f2:	bf00      	nop
 80005f4:	40021000 	.word	0x40021000
 80005f8:	40010000 	.word	0x40010000

080005fc <NMI_Handler>:
 80005fc:	e7fe      	b.n	80005fc <NMI_Handler>

080005fe <HardFault_Handler>:
 80005fe:	e7fe      	b.n	80005fe <HardFault_Handler>

08000600 <MemManage_Handler>:
 8000600:	e7fe      	b.n	8000600 <MemManage_Handler>

08000602 <BusFault_Handler>:
 8000602:	e7fe      	b.n	8000602 <BusFault_Handler>

08000604 <UsageFault_Handler>:
 8000604:	e7fe      	b.n	8000604 <UsageFault_Handler>

08000606 <SVC_Handler>:
 8000606:	4770      	bx	lr

08000608 <DebugMon_Handler>:
 8000608:	4770      	bx	lr

0800060a <PendSV_Handler>:
 800060a:	4770      	bx	lr

0800060c <SysTick_Handler>:
 800060c:	f000 b9d2 	b.w	80009b4 <HAL_IncTick>

08000610 <USART1_IRQHandler>:
 8000610:	4801      	ldr	r0, [pc, #4]	@ (8000618 <USART1_IRQHandler+0x8>)
 8000612:	f001 b919 	b.w	8001848 <HAL_UART_IRQHandler>
 8000616:	bf00      	nop
 8000618:	200001bc 	.word	0x200001bc

0800061c <USART2_IRQHandler>:
 800061c:	4801      	ldr	r0, [pc, #4]	@ (8000624 <USART2_IRQHandler+0x8>)
 800061e:	f001 b913 	b.w	8001848 <HAL_UART_IRQHandler>
 8000622:	bf00      	nop
 8000624:	20000174 	.word	0x20000174

08000628 <_sbrk>:
 8000628:	4a0b      	ldr	r2, [pc, #44]	@ (8000658 <_sbrk+0x30>)
 800062a:	4603      	mov	r3, r0
 800062c:	6811      	ldr	r1, [r2, #0]
 800062e:	b510      	push	{r4, lr}
 8000630:	b909      	cbnz	r1, 8000636 <_sbrk+0xe>
 8000632:	490a      	ldr	r1, [pc, #40]	@ (800065c <_sbrk+0x34>)
 8000634:	6011      	str	r1, [r2, #0]
 8000636:	6810      	ldr	r0, [r2, #0]
 8000638:	4909      	ldr	r1, [pc, #36]	@ (8000660 <_sbrk+0x38>)
 800063a:	4c0a      	ldr	r4, [pc, #40]	@ (8000664 <_sbrk+0x3c>)
 800063c:	4403      	add	r3, r0
 800063e:	1b09      	subs	r1, r1, r4
 8000640:	428b      	cmp	r3, r1
 8000642:	d906      	bls.n	8000652 <_sbrk+0x2a>
 8000644:	f001 fa7a 	bl	8001b3c <__errno>
 8000648:	230c      	movs	r3, #12
 800064a:	6003      	str	r3, [r0, #0]
 800064c:	f04f 30ff 	mov.w	r0, #4294967295
 8000650:	bd10      	pop	{r4, pc}
 8000652:	6013      	str	r3, [r2, #0]
 8000654:	e7fc      	b.n	8000650 <_sbrk+0x28>
 8000656:	bf00      	nop
 8000658:	200000e0 	.word	0x200000e0
 800065c:	20000350 	.word	0x20000350
 8000660:	20005000 	.word	0x20005000
 8000664:	00000400 	.word	0x00000400

08000668 <SystemInit>:
 8000668:	4770      	bx	lr
	...

0800066c <MX_TIM1_Init>:
 800066c:	b57f      	push	{r0, r1, r2, r3, r4, r5, r6, lr}
 800066e:	2210      	movs	r2, #16
 8000670:	2100      	movs	r1, #0
 8000672:	a802      	add	r0, sp, #8
 8000674:	f001 fa5a 	bl	8001b2c <memset>
 8000678:	2300      	movs	r3, #0
 800067a:	4814      	ldr	r0, [pc, #80]	@ (80006cc <MX_TIM1_Init+0x60>)
 800067c:	4a14      	ldr	r2, [pc, #80]	@ (80006d0 <MX_TIM1_Init+0x64>)
 800067e:	e9cd 3300 	strd	r3, r3, [sp]
 8000682:	e9c0 2300 	strd	r2, r3, [r0]
 8000686:	f64f 72ff 	movw	r2, #65535	@ 0xffff
 800068a:	e9c0 3305 	strd	r3, r3, [r0, #20]
 800068e:	e9c0 2303 	strd	r2, r3, [r0, #12]
 8000692:	6083      	str	r3, [r0, #8]
 8000694:	f000 fe06 	bl	80012a4 <HAL_TIM_Base_Init>
 8000698:	b108      	cbz	r0, 800069e <MX_TIM1_Init+0x32>
 800069a:	f7ff ff8b 	bl	80005b4 <Error_Handler>
 800069e:	f44f 5380 	mov.w	r3, #4096	@ 0x1000
 80006a2:	480a      	ldr	r0, [pc, #40]	@ (80006cc <MX_TIM1_Init+0x60>)
 80006a4:	a902      	add	r1, sp, #8
 80006a6:	9302      	str	r3, [sp, #8]
 80006a8:	f000 fe32 	bl	8001310 <HAL_TIM_ConfigClockSource>
 80006ac:	b108      	cbz	r0, 80006b2 <MX_TIM1_Init+0x46>
 80006ae:	f7ff ff81 	bl	80005b4 <Error_Handler>
 80006b2:	2300      	movs	r3, #0
 80006b4:	4669      	mov	r1, sp
 80006b6:	4805      	ldr	r0, [pc, #20]	@ (80006cc <MX_TIM1_Init+0x60>)
 80006b8:	e9cd 3300 	strd	r3, r3, [sp]
 80006bc:	f000 fec2 	bl	8001444 <HAL_TIMEx_MasterConfigSynchronization>
 80006c0:	b108      	cbz	r0, 80006c6 <MX_TIM1_Init+0x5a>
 80006c2:	f7ff ff77 	bl	80005b4 <Error_Handler>
 80006c6:	b007      	add	sp, #28
 80006c8:	f85d fb04 	ldr.w	pc, [sp], #4
 80006cc:	200000e4 	.word	0x200000e4
 80006d0:	40012c00 	.word	0x40012c00

080006d4 <HAL_TIM_Base_MspInit>:
 80006d4:	6802      	ldr	r2, [r0, #0]
 80006d6:	4b08      	ldr	r3, [pc, #32]	@ (80006f8 <HAL_TIM_Base_MspInit+0x24>)
 80006d8:	b082      	sub	sp, #8
 80006da:	429a      	cmp	r2, r3
 80006dc:	d10a      	bne.n	80006f4 <HAL_TIM_Base_MspInit+0x20>
 80006de:	f503 4364 	add.w	r3, r3, #58368	@ 0xe400
 80006e2:	699a      	ldr	r2, [r3, #24]
 80006e4:	f442 6200 	orr.w	r2, r2, #2048	@ 0x800
 80006e8:	619a      	str	r2, [r3, #24]
 80006ea:	699b      	ldr	r3, [r3, #24]
 80006ec:	f403 6300 	and.w	r3, r3, #2048	@ 0x800
 80006f0:	9301      	str	r3, [sp, #4]
 80006f2:	9b01      	ldr	r3, [sp, #4]
 80006f4:	b002      	add	sp, #8
 80006f6:	4770      	bx	lr
 80006f8:	40012c00 	.word	0x40012c00

080006fc <MX_USART1_UART_Init>:
 80006fc:	b508      	push	{r3, lr}
 80006fe:	f44f 33e1 	mov.w	r3, #115200	@ 0x1c200
 8000702:	480a      	ldr	r0, [pc, #40]	@ (800072c <MX_USART1_UART_Init+0x30>)
 8000704:	4a0a      	ldr	r2, [pc, #40]	@ (8000730 <MX_USART1_UART_Init+0x34>)
 8000706:	e9c0 2300 	strd	r2, r3, [r0]
 800070a:	2300      	movs	r3, #0
 800070c:	220c      	movs	r2, #12
 800070e:	e9c0 3302 	strd	r3, r3, [r0, #8]
 8000712:	e9c0 2305 	strd	r2, r3, [r0, #20]
 8000716:	6103      	str	r3, [r0, #16]
 8000718:	61c3      	str	r3, [r0, #28]
 800071a:	f000 ff5b 	bl	80015d4 <HAL_UART_Init>
 800071e:	b118      	cbz	r0, 8000728 <MX_USART1_UART_Init+0x2c>
 8000720:	e8bd 4008 	ldmia.w	sp!, {r3, lr}
 8000724:	f7ff bf46 	b.w	80005b4 <Error_Handler>
 8000728:	bd08      	pop	{r3, pc}
 800072a:	bf00      	nop
 800072c:	200001bc 	.word	0x200001bc
 8000730:	40013800 	.word	0x40013800

08000734 <MX_USART2_UART_Init>:
 8000734:	b508      	push	{r3, lr}
 8000736:	f44f 33e1 	mov.w	r3, #115200	@ 0x1c200
 800073a:	480a      	ldr	r0, [pc, #40]	@ (8000764 <MX_USART2_UART_Init+0x30>)
 800073c:	4a0a      	ldr	r2, [pc, #40]	@ (8000768 <MX_USART2_UART_Init+0x34>)
 800073e:	e9c0 2300 	strd	r2, r3, [r0]
 8000742:	2300      	movs	r3, #0
 8000744:	220c      	movs	r2, #12
 8000746:	e9c0 3302 	strd	r3, r3, [r0, #8]
 800074a:	e9c0 2305 	strd	r2, r3, [r0, #20]
 800074e:	6103      	str	r3, [r0, #16]
 8000750:	61c3      	str	r3, [r0, #28]
 8000752:	f000 ff3f 	bl	80015d4 <HAL_UART_Init>
 8000756:	b118      	cbz	r0, 8000760 <MX_USART2_UART_Init+0x2c>
 8000758:	e8bd 4008 	ldmia.w	sp!, {r3, lr}
 800075c:	f7ff bf2a 	b.w	80005b4 <Error_Handler>
 8000760:	bd08      	pop	{r3, pc}
 8000762:	bf00      	nop
 8000764:	20000174 	.word	0x20000174
 8000768:	40004400 	.word	0x40004400

0800076c <MX_USART3_UART_Init>:
 800076c:	b508      	push	{r3, lr}
 800076e:	f44f 33e1 	mov.w	r3, #115200	@ 0x1c200
 8000772:	480a      	ldr	r0, [pc, #40]	@ (800079c <MX_USART3_UART_Init+0x30>)
 8000774:	4a0a      	ldr	r2, [pc, #40]	@ (80007a0 <MX_USART3_UART_Init+0x34>)
 8000776:	e9c0 2300 	strd	r2, r3, [r0]
 800077a:	2300      	movs	r3, #0
 800077c:	220c      	movs	r2, #12
 800077e:	e9c0 3302 	strd	r3, r3, [r0, #8]
 8000782:	e9c0 2305 	strd	r2, r3, [r0, #20]
 8000786:	6103      	str	r3, [r0, #16]
 8000788:	61c3      	str	r3, [r0, #28]
 800078a:	f000 ff23 	bl	80015d4 <HAL_UART_Init>
 800078e:	b118      	cbz	r0, 8000798 <MX_USART3_UART_Init+0x2c>
 8000790:	e8bd 4008 	ldmia.w	sp!, {r3, lr}
 8000794:	f7ff bf0e 	b.w	80005b4 <Error_Handler>
 8000798:	bd08      	pop	{r3, pc}
 800079a:	bf00      	nop
 800079c:	2000012c 	.word	0x2000012c
 80007a0:	40004800 	.word	0x40004800

080007a4 <HAL_UART_MspInit>:
 80007a4:	b510      	push	{r4, lr}
 80007a6:	4604      	mov	r4, r0
 80007a8:	b08a      	sub	sp, #40	@ 0x28
 80007aa:	2210      	movs	r2, #16
 80007ac:	2100      	movs	r1, #0
 80007ae:	a806      	add	r0, sp, #24
 80007b0:	f001 f9bc 	bl	8001b2c <memset>
 80007b4:	6823      	ldr	r3, [r4, #0]
 80007b6:	4a4b      	ldr	r2, [pc, #300]	@ (80008e4 <HAL_UART_MspInit+0x140>)
 80007b8:	4293      	cmp	r3, r2
 80007ba:	d131      	bne.n	8000820 <HAL_UART_MspInit+0x7c>
 80007bc:	4b4a      	ldr	r3, [pc, #296]	@ (80008e8 <HAL_UART_MspInit+0x144>)
 80007be:	f44f 7000 	mov.w	r0, #512	@ 0x200
 80007c2:	699a      	ldr	r2, [r3, #24]
 80007c4:	a906      	add	r1, sp, #24
 80007c6:	f442 4280 	orr.w	r2, r2, #16384	@ 0x4000
 80007ca:	619a      	str	r2, [r3, #24]
 80007cc:	699a      	ldr	r2, [r3, #24]
 80007ce:	2400      	movs	r4, #0
 80007d0:	f402 4280 	and.w	r2, r2, #16384	@ 0x4000
 80007d4:	9200      	str	r2, [sp, #0]
 80007d6:	9a00      	ldr	r2, [sp, #0]
 80007d8:	699a      	ldr	r2, [r3, #24]
 80007da:	f042 0204 	orr.w	r2, r2, #4
 80007de:	619a      	str	r2, [r3, #24]
 80007e0:	699b      	ldr	r3, [r3, #24]
 80007e2:	f003 0304 	and.w	r3, r3, #4
 80007e6:	9301      	str	r3, [sp, #4]
 80007e8:	9b01      	ldr	r3, [sp, #4]
 80007ea:	2302      	movs	r3, #2
 80007ec:	e9cd 0306 	strd	r0, r3, [sp, #24]
 80007f0:	2303      	movs	r3, #3
 80007f2:	483e      	ldr	r0, [pc, #248]	@ (80008ec <HAL_UART_MspInit+0x148>)
 80007f4:	9309      	str	r3, [sp, #36]	@ 0x24
 80007f6:	f000 f9cb 	bl	8000b90 <HAL_GPIO_Init>
 80007fa:	f44f 6380 	mov.w	r3, #1024	@ 0x400
 80007fe:	483b      	ldr	r0, [pc, #236]	@ (80008ec <HAL_UART_MspInit+0x148>)
 8000800:	a906      	add	r1, sp, #24
 8000802:	e9cd 3406 	strd	r3, r4, [sp, #24]
 8000806:	9408      	str	r4, [sp, #32]
 8000808:	f000 f9c2 	bl	8000b90 <HAL_GPIO_Init>
 800080c:	2025      	movs	r0, #37	@ 0x25
 800080e:	4622      	mov	r2, r4
 8000810:	4621      	mov	r1, r4
 8000812:	f000 f905 	bl	8000a20 <HAL_NVIC_SetPriority>
 8000816:	2025      	movs	r0, #37	@ 0x25
 8000818:	f000 f932 	bl	8000a80 <HAL_NVIC_EnableIRQ>
 800081c:	b00a      	add	sp, #40	@ 0x28
 800081e:	bd10      	pop	{r4, pc}
 8000820:	4a33      	ldr	r2, [pc, #204]	@ (80008f0 <HAL_UART_MspInit+0x14c>)
 8000822:	4293      	cmp	r3, r2
 8000824:	d12c      	bne.n	8000880 <HAL_UART_MspInit+0xdc>
 8000826:	4b30      	ldr	r3, [pc, #192]	@ (80008e8 <HAL_UART_MspInit+0x144>)
 8000828:	2104      	movs	r1, #4
 800082a:	69da      	ldr	r2, [r3, #28]
 800082c:	482f      	ldr	r0, [pc, #188]	@ (80008ec <HAL_UART_MspInit+0x148>)
 800082e:	f442 3200 	orr.w	r2, r2, #131072	@ 0x20000
 8000832:	61da      	str	r2, [r3, #28]
 8000834:	69da      	ldr	r2, [r3, #28]
 8000836:	2400      	movs	r4, #0
 8000838:	f402 3200 	and.w	r2, r2, #131072	@ 0x20000
 800083c:	9202      	str	r2, [sp, #8]
 800083e:	9a02      	ldr	r2, [sp, #8]
 8000840:	699a      	ldr	r2, [r3, #24]
 8000842:	f042 0204 	orr.w	r2, r2, #4
 8000846:	619a      	str	r2, [r3, #24]
 8000848:	699b      	ldr	r3, [r3, #24]
 800084a:	f003 0304 	and.w	r3, r3, #4
 800084e:	9303      	str	r3, [sp, #12]
 8000850:	9b03      	ldr	r3, [sp, #12]
 8000852:	2302      	movs	r3, #2
 8000854:	e9cd 1306 	strd	r1, r3, [sp, #24]
 8000858:	2303      	movs	r3, #3
 800085a:	a906      	add	r1, sp, #24
 800085c:	9309      	str	r3, [sp, #36]	@ 0x24
 800085e:	f000 f997 	bl	8000b90 <HAL_GPIO_Init>
 8000862:	2308      	movs	r3, #8
 8000864:	4821      	ldr	r0, [pc, #132]	@ (80008ec <HAL_UART_MspInit+0x148>)
 8000866:	a906      	add	r1, sp, #24
 8000868:	e9cd 3406 	strd	r3, r4, [sp, #24]
 800086c:	9408      	str	r4, [sp, #32]
 800086e:	f000 f98f 	bl	8000b90 <HAL_GPIO_Init>
 8000872:	2026      	movs	r0, #38	@ 0x26
 8000874:	4622      	mov	r2, r4
 8000876:	4621      	mov	r1, r4
 8000878:	f000 f8d2 	bl	8000a20 <HAL_NVIC_SetPriority>
 800087c:	2026      	movs	r0, #38	@ 0x26
 800087e:	e7cb      	b.n	8000818 <HAL_UART_MspInit+0x74>
 8000880:	4a1c      	ldr	r2, [pc, #112]	@ (80008f4 <HAL_UART_MspInit+0x150>)
 8000882:	4293      	cmp	r3, r2
 8000884:	d1ca      	bne.n	800081c <HAL_UART_MspInit+0x78>
 8000886:	4b18      	ldr	r3, [pc, #96]	@ (80008e8 <HAL_UART_MspInit+0x144>)
 8000888:	481b      	ldr	r0, [pc, #108]	@ (80008f8 <HAL_UART_MspInit+0x154>)
 800088a:	69da      	ldr	r2, [r3, #28]
 800088c:	a906      	add	r1, sp, #24
 800088e:	f442 2280 	orr.w	r2, r2, #262144	@ 0x40000
 8000892:	61da      	str	r2, [r3, #28]
 8000894:	69da      	ldr	r2, [r3, #28]
 8000896:	2400      	movs	r4, #0
 8000898:	f402 2280 	and.w	r2, r2, #262144	@ 0x40000
 800089c:	9204      	str	r2, [sp, #16]
 800089e:	9a04      	ldr	r2, [sp, #16]
 80008a0:	699a      	ldr	r2, [r3, #24]
 80008a2:	f042 0208 	orr.w	r2, r2, #8
 80008a6:	619a      	str	r2, [r3, #24]
 80008a8:	699b      	ldr	r3, [r3, #24]
 80008aa:	f44f 6280 	mov.w	r2, #1024	@ 0x400
 80008ae:	f003 0308 	and.w	r3, r3, #8
 80008b2:	9305      	str	r3, [sp, #20]
 80008b4:	9b05      	ldr	r3, [sp, #20]
 80008b6:	2302      	movs	r3, #2
 80008b8:	e9cd 2306 	strd	r2, r3, [sp, #24]
 80008bc:	2303      	movs	r3, #3
 80008be:	9309      	str	r3, [sp, #36]	@ 0x24
 80008c0:	f000 f966 	bl	8000b90 <HAL_GPIO_Init>
 80008c4:	f44f 6300 	mov.w	r3, #2048	@ 0x800
 80008c8:	480b      	ldr	r0, [pc, #44]	@ (80008f8 <HAL_UART_MspInit+0x154>)
 80008ca:	a906      	add	r1, sp, #24
 80008cc:	e9cd 3406 	strd	r3, r4, [sp, #24]
 80008d0:	9408      	str	r4, [sp, #32]
 80008d2:	f000 f95d 	bl	8000b90 <HAL_GPIO_Init>
 80008d6:	2027      	movs	r0, #39	@ 0x27
 80008d8:	4622      	mov	r2, r4
 80008da:	4621      	mov	r1, r4
 80008dc:	f000 f8a0 	bl	8000a20 <HAL_NVIC_SetPriority>
 80008e0:	2027      	movs	r0, #39	@ 0x27
 80008e2:	e799      	b.n	8000818 <HAL_UART_MspInit+0x74>
 80008e4:	40013800 	.word	0x40013800
 80008e8:	40021000 	.word	0x40021000
 80008ec:	40010800 	.word	0x40010800
 80008f0:	40004400 	.word	0x40004400
 80008f4:	40004800 	.word	0x40004800
 80008f8:	40010c00 	.word	0x40010c00

080008fc <Reset_Handler>:
 80008fc:	f7ff feb4 	bl	8000668 <SystemInit>
 8000900:	480b      	ldr	r0, [pc, #44]	@ (8000930 <LoopFillZerobss+0xe>)
 8000902:	490c      	ldr	r1, [pc, #48]	@ (8000934 <LoopFillZerobss+0x12>)
 8000904:	4a0c      	ldr	r2, [pc, #48]	@ (8000938 <LoopFillZerobss+0x16>)
 8000906:	2300      	movs	r3, #0
 8000908:	e002      	b.n	8000910 <LoopCopyDataInit>

0800090a <CopyDataInit>:
 800090a:	58d4      	ldr	r4, [r2, r3]
 800090c:	50c4      	str	r4, [r0, r3]
 800090e:	3304      	adds	r3, #4

08000910 <LoopCopyDataInit>:
 8000910:	18c4      	adds	r4, r0, r3
 8000912:	428c      	cmp	r4, r1
 8000914:	d3f9      	bcc.n	800090a <CopyDataInit>
 8000916:	4a09      	ldr	r2, [pc, #36]	@ (800093c <LoopFillZerobss+0x1a>)
 8000918:	4c09      	ldr	r4, [pc, #36]	@ (8000940 <LoopFillZerobss+0x1e>)
 800091a:	2300      	movs	r3, #0
 800091c:	e001      	b.n	8000922 <LoopFillZerobss>

0800091e <FillZerobss>:
 800091e:	6013      	str	r3, [r2, #0]
 8000920:	3204      	adds	r2, #4

08000922 <LoopFillZerobss>:
 8000922:	42a2      	cmp	r2, r4
 8000924:	d3fb      	bcc.n	800091e <FillZerobss>
 8000926:	f001 f90f 	bl	8001b48 <__libc_init_array>
 800092a:	f7ff fdf9 	bl	8000520 <main>
 800092e:	4770      	bx	lr
 8000930:	20000000 	.word	0x20000000
 8000934:	200000b0 	.word	0x200000b0
 8000938:	080026dc 	.word	0x080026dc
 800093c:	200000b0 	.word	0x200000b0
 8000940:	20000350 	.word	0x20000350

08000944 <ADC1_2_IRQHandler>:
 8000944:	e7fe      	b.n	8000944 <ADC1_2_IRQHandler>
	...

08000948 <HAL_InitTick>:
 8000948:	b538      	push	{r3, r4, r5, lr}
 800094a:	4b0e      	ldr	r3, [pc, #56]	@ (8000984 <HAL_InitTick+0x3c>)
 800094c:	4605      	mov	r5, r0
 800094e:	781a      	ldrb	r2, [r3, #0]
 8000950:	f44f 737a 	mov.w	r3, #1000	@ 0x3e8
 8000954:	fbb3 f3f2 	udiv	r3, r3, r2
 8000958:	4a0b      	ldr	r2, [pc, #44]	@ (8000988 <HAL_InitTick+0x40>)
 800095a:	6810      	ldr	r0, [r2, #0]
 800095c:	fbb0 f0f3 	udiv	r0, r0, r3
 8000960:	f000 f89c 	bl	8000a9c <HAL_SYSTICK_Config>
 8000964:	4604      	mov	r4, r0
 8000966:	b958      	cbnz	r0, 8000980 <HAL_InitTick+0x38>
 8000968:	2d0f      	cmp	r5, #15
 800096a:	d809      	bhi.n	8000980 <HAL_InitTick+0x38>
 800096c:	4602      	mov	r2, r0
 800096e:	4629      	mov	r1, r5
 8000970:	f04f 30ff 	mov.w	r0, #4294967295
 8000974:	f000 f854 	bl	8000a20 <HAL_NVIC_SetPriority>
 8000978:	4620      	mov	r0, r4
 800097a:	4b04      	ldr	r3, [pc, #16]	@ (800098c <HAL_InitTick+0x44>)
 800097c:	601d      	str	r5, [r3, #0]
 800097e:	bd38      	pop	{r3, r4, r5, pc}
 8000980:	2001      	movs	r0, #1
 8000982:	e7fc      	b.n	800097e <HAL_InitTick+0x36>
 8000984:	20000058 	.word	0x20000058
 8000988:	20000054 	.word	0x20000054
 800098c:	2000005c 	.word	0x2000005c

08000990 <HAL_Init>:
 8000990:	4a07      	ldr	r2, [pc, #28]	@ (80009b0 <HAL_Init+0x20>)
 8000992:	b508      	push	{r3, lr}
 8000994:	6813      	ldr	r3, [r2, #0]
 8000996:	2003      	movs	r0, #3
 8000998:	f043 0310 	orr.w	r3, r3, #16
 800099c:	6013      	str	r3, [r2, #0]
 800099e:	f000 f82d 	bl	80009fc <HAL_NVIC_SetPriorityGrouping>
 80009a2:	200f      	movs	r0, #15
 80009a4:	f7ff ffd0 	bl	8000948 <HAL_InitTick>
 80009a8:	f7ff fe06 	bl	80005b8 <HAL_MspInit>
 80009ac:	2000      	movs	r0, #0
 80009ae:	bd08      	pop	{r3, pc}
 80009b0:	40022000 	.word	0x40022000

080009b4 <HAL_IncTick>:
 80009b4:	4a03      	ldr	r2, [pc, #12]	@ (80009c4 <HAL_IncTick+0x10>)
 80009b6:	4b04      	ldr	r3, [pc, #16]	@ (80009c8 <HAL_IncTick+0x14>)
 80009b8:	6811      	ldr	r1, [r2, #0]
 80009ba:	781b      	ldrb	r3, [r3, #0]
 80009bc:	440b      	add	r3, r1
 80009be:	6013      	str	r3, [r2, #0]
 80009c0:	4770      	bx	lr
 80009c2:	bf00      	nop
 80009c4:	20000204 	.word	0x20000204
 80009c8:	20000058 	.word	0x20000058

080009cc <HAL_GetTick>:
 80009cc:	4b01      	ldr	r3, [pc, #4]	@ (80009d4 <HAL_GetTick+0x8>)
 80009ce:	6818      	ldr	r0, [r3, #0]
 80009d0:	4770      	bx	lr
 80009d2:	bf00      	nop
 80009d4:	20000204 	.word	0x20000204

080009d8 <HAL_Delay>:
 80009d8:	b538      	push	{r3, r4, r5, lr}
 80009da:	4604      	mov	r4, r0
 80009dc:	f7ff fff6 	bl	80009cc <HAL_GetTick>
 80009e0:	4605      	mov	r5, r0
 80009e2:	1c63      	adds	r3, r4, #1
 80009e4:	bf1e      	ittt	ne
 80009e6:	4b04      	ldrne	r3, [pc, #16]	@ (80009f8 <HAL_Delay+0x20>)
 80009e8:	781b      	ldrbne	r3, [r3, #0]
 80009ea:	18e4      	addne	r4, r4, r3
 80009ec:	f7ff ffee 	bl	80009cc <HAL_GetTick>
 80009f0:	1b43      	subs	r3, r0, r5
 80009f2:	42a3      	cmp	r3, r4
 80009f4:	d3fa      	bcc.n	80009ec <HAL_Delay+0x14>
 80009f6:	bd38      	pop	{r3, r4, r5, pc}
 80009f8:	20000058 	.word	0x20000058

080009fc <HAL_NVIC_SetPriorityGrouping>:
 80009fc:	4907      	ldr	r1, [pc, #28]	@ (8000a1c <HAL_NVIC_SetPriorityGrouping+0x20>)
 80009fe:	0203      	lsls	r3, r0, #8
 8000a00:	68ca      	ldr	r2, [r1, #12]
 8000a02:	f403 63e0 	and.w	r3, r3, #1792	@ 0x700
 8000a06:	f422 62e0 	bic.w	r2, r2, #1792	@ 0x700
 8000a0a:	0412      	lsls	r2, r2, #16
 8000a0c:	0c12      	lsrs	r2, r2, #16
 8000a0e:	4313      	orrs	r3, r2
 8000a10:	f043 63bf 	orr.w	r3, r3, #100139008	@ 0x5f80000
 8000a14:	f443 3300 	orr.w	r3, r3, #131072	@ 0x20000
 8000a18:	60cb      	str	r3, [r1, #12]
 8000a1a:	4770      	bx	lr
 8000a1c:	e000ed00 	.word	0xe000ed00

08000a20 <HAL_NVIC_SetPriority>:
 8000a20:	4b15      	ldr	r3, [pc, #84]	@ (8000a78 <HAL_NVIC_SetPriority+0x58>)
 8000a22:	b530      	push	{r4, r5, lr}
 8000a24:	68dc      	ldr	r4, [r3, #12]
 8000a26:	f3c4 2402 	ubfx	r4, r4, #8, #3
 8000a2a:	f1c4 0307 	rsb	r3, r4, #7
 8000a2e:	1d25      	adds	r5, r4, #4
 8000a30:	2b04      	cmp	r3, #4
 8000a32:	bf28      	it	cs
 8000a34:	2304      	movcs	r3, #4
 8000a36:	2d06      	cmp	r5, #6
 8000a38:	f04f 35ff 	mov.w	r5, #4294967295
 8000a3c:	bf94      	ite	ls
 8000a3e:	2400      	movls	r4, #0
 8000a40:	3c03      	subhi	r4, #3
 8000a42:	fa05 f303 	lsl.w	r3, r5, r3
 8000a46:	ea21 0303 	bic.w	r3, r1, r3
 8000a4a:	40a5      	lsls	r5, r4
 8000a4c:	ea22 0205 	bic.w	r2, r2, r5
 8000a50:	40a3      	lsls	r3, r4
 8000a52:	2800      	cmp	r0, #0
 8000a54:	ea43 0302 	orr.w	r3, r3, r2
 8000a58:	bfac      	ite	ge
 8000a5a:	f100 4060 	addge.w	r0, r0, #3758096384	@ 0xe0000000
 8000a5e:	4a07      	ldrlt	r2, [pc, #28]	@ (8000a7c <HAL_NVIC_SetPriority+0x5c>)
 8000a60:	ea4f 1303 	mov.w	r3, r3, lsl #4
 8000a64:	b2db      	uxtb	r3, r3
 8000a66:	bfab      	itete	ge
 8000a68:	f500 4061 	addge.w	r0, r0, #57600	@ 0xe100
 8000a6c:	f000 000f 	andlt.w	r0, r0, #15
 8000a70:	f880 3300 	strbge.w	r3, [r0, #768]	@ 0x300
 8000a74:	5413      	strblt	r3, [r2, r0]
 8000a76:	bd30      	pop	{r4, r5, pc}
 8000a78:	e000ed00 	.word	0xe000ed00
 8000a7c:	e000ed14 	.word	0xe000ed14

08000a80 <HAL_NVIC_EnableIRQ>:
 8000a80:	2800      	cmp	r0, #0
 8000a82:	db07      	blt.n	8000a94 <HAL_NVIC_EnableIRQ+0x14>
 8000a84:	2301      	movs	r3, #1
 8000a86:	0941      	lsrs	r1, r0, #5
 8000a88:	4a03      	ldr	r2, [pc, #12]	@ (8000a98 <HAL_NVIC_EnableIRQ+0x18>)
 8000a8a:	f000 001f 	and.w	r0, r0, #31
 8000a8e:	4083      	lsls	r3, r0
 8000a90:	f842 3021 	str.w	r3, [r2, r1, lsl #2]
 8000a94:	4770      	bx	lr
 8000a96:	bf00      	nop
 8000a98:	e000e100 	.word	0xe000e100

08000a9c <HAL_SYSTICK_Config>:
 8000a9c:	3801      	subs	r0, #1
 8000a9e:	f1b0 7f80 	cmp.w	r0, #16777216	@ 0x1000000
 8000aa2:	d20b      	bcs.n	8000abc <HAL_SYSTICK_Config+0x20>
 8000aa4:	f04f 23e0 	mov.w	r3, #3758153728	@ 0xe000e000
 8000aa8:	21f0      	movs	r1, #240	@ 0xf0
 8000aaa:	4a05      	ldr	r2, [pc, #20]	@ (8000ac0 <HAL_SYSTICK_Config+0x24>)
 8000aac:	6158      	str	r0, [r3, #20]
 8000aae:	f882 1023 	strb.w	r1, [r2, #35]	@ 0x23
 8000ab2:	2000      	movs	r0, #0
 8000ab4:	2207      	movs	r2, #7
 8000ab6:	6198      	str	r0, [r3, #24]
 8000ab8:	611a      	str	r2, [r3, #16]
 8000aba:	4770      	bx	lr
 8000abc:	2001      	movs	r0, #1
 8000abe:	4770      	bx	lr
 8000ac0:	e000ed00 	.word	0xe000ed00

08000ac4 <HAL_DMA_Abort>:
 8000ac4:	f890 2021 	ldrb.w	r2, [r0, #33]	@ 0x21
 8000ac8:	4603      	mov	r3, r0
 8000aca:	2a02      	cmp	r2, #2
 8000acc:	d006      	beq.n	8000adc <HAL_DMA_Abort+0x18>
 8000ace:	2204      	movs	r2, #4
 8000ad0:	6382      	str	r2, [r0, #56]	@ 0x38
 8000ad2:	2001      	movs	r0, #1
 8000ad4:	2200      	movs	r2, #0
 8000ad6:	f883 2020 	strb.w	r2, [r3, #32]
 8000ada:	4770      	bx	lr
 8000adc:	6802      	ldr	r2, [r0, #0]
 8000ade:	6bc0      	ldr	r0, [r0, #60]	@ 0x3c
 8000ae0:	6811      	ldr	r1, [r2, #0]
 8000ae2:	f021 010e 	bic.w	r1, r1, #14
 8000ae6:	6011      	str	r1, [r2, #0]
 8000ae8:	6811      	ldr	r1, [r2, #0]
 8000aea:	f021 0101 	bic.w	r1, r1, #1
 8000aee:	6011      	str	r1, [r2, #0]
 8000af0:	2101      	movs	r1, #1
 8000af2:	6c1a      	ldr	r2, [r3, #64]	@ 0x40
 8000af4:	fa01 f202 	lsl.w	r2, r1, r2
 8000af8:	6042      	str	r2, [r0, #4]
 8000afa:	2000      	movs	r0, #0
 8000afc:	f883 1021 	strb.w	r1, [r3, #33]	@ 0x21
 8000b00:	e7e8      	b.n	8000ad4 <HAL_DMA_Abort+0x10>
	...

08000b04 <HAL_DMA_Abort_IT>:
 8000b04:	b508      	push	{r3, lr}
 8000b06:	f890 3021 	ldrb.w	r3, [r0, #33]	@ 0x21
 8000b0a:	2b02      	cmp	r3, #2
 8000b0c:	d003      	beq.n	8000b16 <HAL_DMA_Abort_IT+0x12>
 8000b0e:	2304      	movs	r3, #4
 8000b10:	6383      	str	r3, [r0, #56]	@ 0x38
 8000b12:	2001      	movs	r0, #1
 8000b14:	bd08      	pop	{r3, pc}
 8000b16:	6803      	ldr	r3, [r0, #0]
 8000b18:	681a      	ldr	r2, [r3, #0]
 8000b1a:	f022 020e 	bic.w	r2, r2, #14
 8000b1e:	601a      	str	r2, [r3, #0]
 8000b20:	681a      	ldr	r2, [r3, #0]
 8000b22:	f022 0201 	bic.w	r2, r2, #1
 8000b26:	601a      	str	r2, [r3, #0]
 8000b28:	4a17      	ldr	r2, [pc, #92]	@ (8000b88 <HAL_DMA_Abort_IT+0x84>)
 8000b2a:	4293      	cmp	r3, r2
 8000b2c:	d01f      	beq.n	8000b6e <HAL_DMA_Abort_IT+0x6a>
 8000b2e:	3214      	adds	r2, #20
 8000b30:	4293      	cmp	r3, r2
 8000b32:	d01e      	beq.n	8000b72 <HAL_DMA_Abort_IT+0x6e>
 8000b34:	3214      	adds	r2, #20
 8000b36:	4293      	cmp	r3, r2
 8000b38:	d01d      	beq.n	8000b76 <HAL_DMA_Abort_IT+0x72>
 8000b3a:	3214      	adds	r2, #20
 8000b3c:	4293      	cmp	r3, r2
 8000b3e:	d01d      	beq.n	8000b7c <HAL_DMA_Abort_IT+0x78>
 8000b40:	3214      	adds	r2, #20
 8000b42:	4293      	cmp	r3, r2
 8000b44:	d01d      	beq.n	8000b82 <HAL_DMA_Abort_IT+0x7e>
 8000b46:	3214      	adds	r2, #20
 8000b48:	4293      	cmp	r3, r2
 8000b4a:	bf14      	ite	ne
 8000b4c:	f04f 7380 	movne.w	r3, #16777216	@ 0x1000000
 8000b50:	f44f 1380 	moveq.w	r3, #1048576	@ 0x100000
 8000b54:	4a0d      	ldr	r2, [pc, #52]	@ (8000b8c <HAL_DMA_Abort_IT+0x88>)
 8000b56:	6053      	str	r3, [r2, #4]
 8000b58:	2301      	movs	r3, #1
 8000b5a:	f880 3021 	strb.w	r3, [r0, #33]	@ 0x21
 8000b5e:	2300      	movs	r3, #0
 8000b60:	f880 3020 	strb.w	r3, [r0, #32]
 8000b64:	6b43      	ldr	r3, [r0, #52]	@ 0x34
 8000b66:	b103      	cbz	r3, 8000b6a <HAL_DMA_Abort_IT+0x66>
 8000b68:	4798      	blx	r3
 8000b6a:	2000      	movs	r0, #0
 8000b6c:	e7d2      	b.n	8000b14 <HAL_DMA_Abort_IT+0x10>
 8000b6e:	2301      	movs	r3, #1
 8000b70:	e7f0      	b.n	8000b54 <HAL_DMA_Abort_IT+0x50>
 8000b72:	2310      	movs	r3, #16
 8000b74:	e7ee      	b.n	8000b54 <HAL_DMA_Abort_IT+0x50>
 8000b76:	f44f 7380 	mov.w	r3, #256	@ 0x100
 8000b7a:	e7eb      	b.n	8000b54 <HAL_DMA_Abort_IT+0x50>
 8000b7c:	f44f 5380 	mov.w	r3, #4096	@ 0x1000
 8000b80:	e7e8      	b.n	8000b54 <HAL_DMA_Abort_IT+0x50>
 8000b82:	f44f 3380 	mov.w	r3, #65536	@ 0x10000
 8000b86:	e7e5      	b.n	8000b54 <HAL_DMA_Abort_IT+0x50>
 8000b88:	40020008 	.word	0x40020008
 8000b8c:	40020000 	.word	0x40020000

08000b90 <HAL_GPIO_Init>:
 8000b90:	e92d 4ff7 	stmdb	sp!, {r0, r1, r2, r4, r5, r6, r7, r8, r9, sl, fp, lr}
 8000b94:	2400      	movs	r4, #0
 8000b96:	f04f 0e0f 	mov.w	lr, #15
 8000b9a:	4626      	mov	r6, r4
 8000b9c:	f8df c184 	ldr.w	ip, [pc, #388]	@ 8000d24 <HAL_GPIO_Init+0x194>
 8000ba0:	4b61      	ldr	r3, [pc, #388]	@ (8000d28 <HAL_GPIO_Init+0x198>)
 8000ba2:	f100 0804 	add.w	r8, r0, #4
 8000ba6:	680a      	ldr	r2, [r1, #0]
 8000ba8:	fa32 f506 	lsrs.w	r5, r2, r6
 8000bac:	d102      	bne.n	8000bb4 <HAL_GPIO_Init+0x24>
 8000bae:	b003      	add	sp, #12
 8000bb0:	e8bd 8ff0 	ldmia.w	sp!, {r4, r5, r6, r7, r8, r9, sl, fp, pc}
 8000bb4:	2501      	movs	r5, #1
 8000bb6:	fa05 f706 	lsl.w	r7, r5, r6
 8000bba:	ea02 0507 	and.w	r5, r2, r7
 8000bbe:	ea37 0202 	bics.w	r2, r7, r2
 8000bc2:	d176      	bne.n	8000cb2 <HAL_GPIO_Init+0x122>
 8000bc4:	684a      	ldr	r2, [r1, #4]
 8000bc6:	2a03      	cmp	r2, #3
 8000bc8:	d807      	bhi.n	8000bda <HAL_GPIO_Init+0x4a>
 8000bca:	3a01      	subs	r2, #1
 8000bcc:	2a02      	cmp	r2, #2
 8000bce:	f200 8083 	bhi.w	8000cd8 <HAL_GPIO_Init+0x148>
 8000bd2:	e8df f002 	tbb	[pc, r2]
 8000bd6:	9691      	.short	0x9691
 8000bd8:	9c          	.byte	0x9c
 8000bd9:	00          	.byte	0x00
 8000bda:	2a12      	cmp	r2, #18
 8000bdc:	f000 8094 	beq.w	8000d08 <HAL_GPIO_Init+0x178>
 8000be0:	d869      	bhi.n	8000cb6 <HAL_GPIO_Init+0x126>
 8000be2:	2a11      	cmp	r2, #17
 8000be4:	f000 808a 	beq.w	8000cfc <HAL_GPIO_Init+0x16c>
 8000be8:	2dff      	cmp	r5, #255	@ 0xff
 8000bea:	bf94      	ite	ls
 8000bec:	4681      	movls	r9, r0
 8000bee:	46c1      	movhi	r9, r8
 8000bf0:	ea4f 0286 	mov.w	r2, r6, lsl #2
 8000bf4:	f8d9 7000 	ldr.w	r7, [r9]
 8000bf8:	bf88      	it	hi
 8000bfa:	3a20      	subhi	r2, #32
 8000bfc:	fa0e fa02 	lsl.w	sl, lr, r2
 8000c00:	ea27 070a 	bic.w	r7, r7, sl
 8000c04:	fa04 f202 	lsl.w	r2, r4, r2
 8000c08:	4317      	orrs	r7, r2
 8000c0a:	f8c9 7000 	str.w	r7, [r9]
 8000c0e:	f8d1 9004 	ldr.w	r9, [r1, #4]
 8000c12:	f019 5f80 	tst.w	r9, #268435456	@ 0x10000000
 8000c16:	d04c      	beq.n	8000cb2 <HAL_GPIO_Init+0x122>
 8000c18:	f8dc 2018 	ldr.w	r2, [ip, #24]
 8000c1c:	f026 0703 	bic.w	r7, r6, #3
 8000c20:	f042 0201 	orr.w	r2, r2, #1
 8000c24:	f8cc 2018 	str.w	r2, [ip, #24]
 8000c28:	f8dc 2018 	ldr.w	r2, [ip, #24]
 8000c2c:	f107 4780 	add.w	r7, r7, #1073741824	@ 0x40000000
 8000c30:	f002 0201 	and.w	r2, r2, #1
 8000c34:	9201      	str	r2, [sp, #4]
 8000c36:	f507 3780 	add.w	r7, r7, #65536	@ 0x10000
 8000c3a:	f006 0a03 	and.w	sl, r6, #3
 8000c3e:	9a01      	ldr	r2, [sp, #4]
 8000c40:	ea4f 0a8a 	mov.w	sl, sl, lsl #2
 8000c44:	68ba      	ldr	r2, [r7, #8]
 8000c46:	fa0e fb0a 	lsl.w	fp, lr, sl
 8000c4a:	ea22 0b0b 	bic.w	fp, r2, fp
 8000c4e:	4a37      	ldr	r2, [pc, #220]	@ (8000d2c <HAL_GPIO_Init+0x19c>)
 8000c50:	4290      	cmp	r0, r2
 8000c52:	d060      	beq.n	8000d16 <HAL_GPIO_Init+0x186>
 8000c54:	f502 6280 	add.w	r2, r2, #1024	@ 0x400
 8000c58:	4290      	cmp	r0, r2
 8000c5a:	d05e      	beq.n	8000d1a <HAL_GPIO_Init+0x18a>
 8000c5c:	f502 6280 	add.w	r2, r2, #1024	@ 0x400
 8000c60:	4290      	cmp	r0, r2
 8000c62:	d05c      	beq.n	8000d1e <HAL_GPIO_Init+0x18e>
 8000c64:	f502 6280 	add.w	r2, r2, #1024	@ 0x400
 8000c68:	4290      	cmp	r0, r2
 8000c6a:	bf14      	ite	ne
 8000c6c:	2204      	movne	r2, #4
 8000c6e:	2203      	moveq	r2, #3
 8000c70:	fa02 f20a 	lsl.w	r2, r2, sl
 8000c74:	ea42 020b 	orr.w	r2, r2, fp
 8000c78:	60ba      	str	r2, [r7, #8]
 8000c7a:	689a      	ldr	r2, [r3, #8]
 8000c7c:	f419 1f80 	tst.w	r9, #1048576	@ 0x100000
 8000c80:	bf14      	ite	ne
 8000c82:	432a      	orrne	r2, r5
 8000c84:	43aa      	biceq	r2, r5
 8000c86:	609a      	str	r2, [r3, #8]
 8000c88:	68da      	ldr	r2, [r3, #12]
 8000c8a:	f419 1f00 	tst.w	r9, #2097152	@ 0x200000
 8000c8e:	bf14      	ite	ne
 8000c90:	432a      	orrne	r2, r5
 8000c92:	43aa      	biceq	r2, r5
 8000c94:	60da      	str	r2, [r3, #12]
 8000c96:	685a      	ldr	r2, [r3, #4]
 8000c98:	f419 3f00 	tst.w	r9, #131072	@ 0x20000
 8000c9c:	bf14      	ite	ne
 8000c9e:	432a      	orrne	r2, r5
 8000ca0:	43aa      	biceq	r2, r5
 8000ca2:	605a      	str	r2, [r3, #4]
 8000ca4:	681a      	ldr	r2, [r3, #0]
 8000ca6:	f419 3f80 	tst.w	r9, #65536	@ 0x10000
 8000caa:	bf14      	ite	ne
 8000cac:	432a      	orrne	r2, r5
 8000cae:	43aa      	biceq	r2, r5
 8000cb0:	601a      	str	r2, [r3, #0]
 8000cb2:	3601      	adds	r6, #1
 8000cb4:	e777      	b.n	8000ba6 <HAL_GPIO_Init+0x16>
 8000cb6:	f8df 9078 	ldr.w	r9, [pc, #120]	@ 8000d30 <HAL_GPIO_Init+0x1a0>
 8000cba:	454a      	cmp	r2, r9
 8000cbc:	d00c      	beq.n	8000cd8 <HAL_GPIO_Init+0x148>
 8000cbe:	d814      	bhi.n	8000cea <HAL_GPIO_Init+0x15a>
 8000cc0:	f5a9 1980 	sub.w	r9, r9, #1048576	@ 0x100000
 8000cc4:	454a      	cmp	r2, r9
 8000cc6:	d007      	beq.n	8000cd8 <HAL_GPIO_Init+0x148>
 8000cc8:	f509 2970 	add.w	r9, r9, #983040	@ 0xf0000
 8000ccc:	454a      	cmp	r2, r9
 8000cce:	d003      	beq.n	8000cd8 <HAL_GPIO_Init+0x148>
 8000cd0:	f5a9 1980 	sub.w	r9, r9, #1048576	@ 0x100000
 8000cd4:	454a      	cmp	r2, r9
 8000cd6:	d187      	bne.n	8000be8 <HAL_GPIO_Init+0x58>
 8000cd8:	688a      	ldr	r2, [r1, #8]
 8000cda:	b1d2      	cbz	r2, 8000d12 <HAL_GPIO_Init+0x182>
 8000cdc:	2a01      	cmp	r2, #1
 8000cde:	f04f 0408 	mov.w	r4, #8
 8000ce2:	bf0c      	ite	eq
 8000ce4:	6107      	streq	r7, [r0, #16]
 8000ce6:	6147      	strne	r7, [r0, #20]
 8000ce8:	e77e      	b.n	8000be8 <HAL_GPIO_Init+0x58>
 8000cea:	f8df 9048 	ldr.w	r9, [pc, #72]	@ 8000d34 <HAL_GPIO_Init+0x1a4>
 8000cee:	454a      	cmp	r2, r9
 8000cf0:	d0f2      	beq.n	8000cd8 <HAL_GPIO_Init+0x148>
 8000cf2:	f509 3980 	add.w	r9, r9, #65536	@ 0x10000
 8000cf6:	e7ed      	b.n	8000cd4 <HAL_GPIO_Init+0x144>
 8000cf8:	68cc      	ldr	r4, [r1, #12]
 8000cfa:	e775      	b.n	8000be8 <HAL_GPIO_Init+0x58>
 8000cfc:	68cc      	ldr	r4, [r1, #12]
 8000cfe:	3404      	adds	r4, #4
 8000d00:	e772      	b.n	8000be8 <HAL_GPIO_Init+0x58>
 8000d02:	68cc      	ldr	r4, [r1, #12]
 8000d04:	3408      	adds	r4, #8
 8000d06:	e76f      	b.n	8000be8 <HAL_GPIO_Init+0x58>
 8000d08:	68cc      	ldr	r4, [r1, #12]
 8000d0a:	340c      	adds	r4, #12
 8000d0c:	e76c      	b.n	8000be8 <HAL_GPIO_Init+0x58>
 8000d0e:	2400      	movs	r4, #0
 8000d10:	e76a      	b.n	8000be8 <HAL_GPIO_Init+0x58>
 8000d12:	2404      	movs	r4, #4
 8000d14:	e768      	b.n	8000be8 <HAL_GPIO_Init+0x58>
 8000d16:	2200      	movs	r2, #0
 8000d18:	e7aa      	b.n	8000c70 <HAL_GPIO_Init+0xe0>
 8000d1a:	2201      	movs	r2, #1
 8000d1c:	e7a8      	b.n	8000c70 <HAL_GPIO_Init+0xe0>
 8000d1e:	2202      	movs	r2, #2
 8000d20:	e7a6      	b.n	8000c70 <HAL_GPIO_Init+0xe0>
 8000d22:	bf00      	nop
 8000d24:	40021000 	.word	0x40021000
 8000d28:	40010400 	.word	0x40010400
 8000d2c:	40010800 	.word	0x40010800
 8000d30:	10220000 	.word	0x10220000
 8000d34:	10310000 	.word	0x10310000

08000d38 <HAL_GPIO_WritePin>:
 8000d38:	b10a      	cbz	r2, 8000d3e <HAL_GPIO_WritePin+0x6>
 8000d3a:	6101      	str	r1, [r0, #16]
 8000d3c:	4770      	bx	lr
 8000d3e:	0409      	lsls	r1, r1, #16
 8000d40:	e7fb      	b.n	8000d3a <HAL_GPIO_WritePin+0x2>
	...

08000d44 <HAL_RCC_OscConfig>:
 8000d44:	e92d 41f3 	stmdb	sp!, {r0, r1, r4, r5, r6, r7, r8, lr}
 8000d48:	4605      	mov	r5, r0
 8000d4a:	b338      	cbz	r0, 8000d9c <HAL_RCC_OscConfig+0x58>
 8000d4c:	6803      	ldr	r3, [r0, #0]
 8000d4e:	07db      	lsls	r3, r3, #31
 8000d50:	d410      	bmi.n	8000d74 <HAL_RCC_OscConfig+0x30>
 8000d52:	682b      	ldr	r3, [r5, #0]
 8000d54:	079f      	lsls	r7, r3, #30
 8000d56:	d45e      	bmi.n	8000e16 <HAL_RCC_OscConfig+0xd2>
 8000d58:	682b      	ldr	r3, [r5, #0]
 8000d5a:	0719      	lsls	r1, r3, #28
 8000d5c:	f100 8095 	bmi.w	8000e8a <HAL_RCC_OscConfig+0x146>
 8000d60:	682b      	ldr	r3, [r5, #0]
 8000d62:	075a      	lsls	r2, r3, #29
 8000d64:	f100 80c1 	bmi.w	8000eea <HAL_RCC_OscConfig+0x1a6>
 8000d68:	69eb      	ldr	r3, [r5, #28]
 8000d6a:	2b00      	cmp	r3, #0
 8000d6c:	f040 812c 	bne.w	8000fc8 <HAL_RCC_OscConfig+0x284>
 8000d70:	2000      	movs	r0, #0
 8000d72:	e029      	b.n	8000dc8 <HAL_RCC_OscConfig+0x84>
 8000d74:	4c90      	ldr	r4, [pc, #576]	@ (8000fb8 <HAL_RCC_OscConfig+0x274>)
 8000d76:	6863      	ldr	r3, [r4, #4]
 8000d78:	f003 030c 	and.w	r3, r3, #12
 8000d7c:	2b04      	cmp	r3, #4
 8000d7e:	d007      	beq.n	8000d90 <HAL_RCC_OscConfig+0x4c>
 8000d80:	6863      	ldr	r3, [r4, #4]
 8000d82:	f003 030c 	and.w	r3, r3, #12
 8000d86:	2b08      	cmp	r3, #8
 8000d88:	d10a      	bne.n	8000da0 <HAL_RCC_OscConfig+0x5c>
 8000d8a:	6863      	ldr	r3, [r4, #4]
 8000d8c:	03de      	lsls	r6, r3, #15
 8000d8e:	d507      	bpl.n	8000da0 <HAL_RCC_OscConfig+0x5c>
 8000d90:	6823      	ldr	r3, [r4, #0]
 8000d92:	039c      	lsls	r4, r3, #14
 8000d94:	d5dd      	bpl.n	8000d52 <HAL_RCC_OscConfig+0xe>
 8000d96:	686b      	ldr	r3, [r5, #4]
 8000d98:	2b00      	cmp	r3, #0
 8000d9a:	d1da      	bne.n	8000d52 <HAL_RCC_OscConfig+0xe>
 8000d9c:	2001      	movs	r0, #1
 8000d9e:	e013      	b.n	8000dc8 <HAL_RCC_OscConfig+0x84>
 8000da0:	686b      	ldr	r3, [r5, #4]
 8000da2:	f5b3 3f80 	cmp.w	r3, #65536	@ 0x10000
 8000da6:	d112      	bne.n	8000dce <HAL_RCC_OscConfig+0x8a>
 8000da8:	6823      	ldr	r3, [r4, #0]
 8000daa:	f443 3380 	orr.w	r3, r3, #65536	@ 0x10000
 8000dae:	6023      	str	r3, [r4, #0]
 8000db0:	f7ff fe0c 	bl	80009cc <HAL_GetTick>
 8000db4:	4606      	mov	r6, r0
 8000db6:	6823      	ldr	r3, [r4, #0]
 8000db8:	0398      	lsls	r0, r3, #14
 8000dba:	d4ca      	bmi.n	8000d52 <HAL_RCC_OscConfig+0xe>
 8000dbc:	f7ff fe06 	bl	80009cc <HAL_GetTick>
 8000dc0:	1b80      	subs	r0, r0, r6
 8000dc2:	2864      	cmp	r0, #100	@ 0x64
 8000dc4:	d9f7      	bls.n	8000db6 <HAL_RCC_OscConfig+0x72>
 8000dc6:	2003      	movs	r0, #3
 8000dc8:	b002      	add	sp, #8
 8000dca:	e8bd 81f0 	ldmia.w	sp!, {r4, r5, r6, r7, r8, pc}
 8000dce:	b99b      	cbnz	r3, 8000df8 <HAL_RCC_OscConfig+0xb4>
 8000dd0:	6823      	ldr	r3, [r4, #0]
 8000dd2:	f423 3380 	bic.w	r3, r3, #65536	@ 0x10000
 8000dd6:	6023      	str	r3, [r4, #0]
 8000dd8:	6823      	ldr	r3, [r4, #0]
 8000dda:	f423 2380 	bic.w	r3, r3, #262144	@ 0x40000
 8000dde:	6023      	str	r3, [r4, #0]
 8000de0:	f7ff fdf4 	bl	80009cc <HAL_GetTick>
 8000de4:	4606      	mov	r6, r0
 8000de6:	6823      	ldr	r3, [r4, #0]
 8000de8:	0399      	lsls	r1, r3, #14
 8000dea:	d5b2      	bpl.n	8000d52 <HAL_RCC_OscConfig+0xe>
 8000dec:	f7ff fdee 	bl	80009cc <HAL_GetTick>
 8000df0:	1b80      	subs	r0, r0, r6
 8000df2:	2864      	cmp	r0, #100	@ 0x64
 8000df4:	d9f7      	bls.n	8000de6 <HAL_RCC_OscConfig+0xa2>
 8000df6:	e7e6      	b.n	8000dc6 <HAL_RCC_OscConfig+0x82>
 8000df8:	f5b3 2fa0 	cmp.w	r3, #327680	@ 0x50000
 8000dfc:	6823      	ldr	r3, [r4, #0]
 8000dfe:	d103      	bne.n	8000e08 <HAL_RCC_OscConfig+0xc4>
 8000e00:	f443 2380 	orr.w	r3, r3, #262144	@ 0x40000
 8000e04:	6023      	str	r3, [r4, #0]
 8000e06:	e7cf      	b.n	8000da8 <HAL_RCC_OscConfig+0x64>
 8000e08:	f423 3380 	bic.w	r3, r3, #65536	@ 0x10000
 8000e0c:	6023      	str	r3, [r4, #0]
 8000e0e:	6823      	ldr	r3, [r4, #0]
 8000e10:	f423 2380 	bic.w	r3, r3, #262144	@ 0x40000
 8000e14:	e7cb      	b.n	8000dae <HAL_RCC_OscConfig+0x6a>
 8000e16:	4c68      	ldr	r4, [pc, #416]	@ (8000fb8 <HAL_RCC_OscConfig+0x274>)
 8000e18:	6863      	ldr	r3, [r4, #4]
 8000e1a:	f013 0f0c 	tst.w	r3, #12
 8000e1e:	d007      	beq.n	8000e30 <HAL_RCC_OscConfig+0xec>
 8000e20:	6863      	ldr	r3, [r4, #4]
 8000e22:	f003 030c 	and.w	r3, r3, #12
 8000e26:	2b08      	cmp	r3, #8
 8000e28:	d110      	bne.n	8000e4c <HAL_RCC_OscConfig+0x108>
 8000e2a:	6863      	ldr	r3, [r4, #4]
 8000e2c:	03da      	lsls	r2, r3, #15
 8000e2e:	d40d      	bmi.n	8000e4c <HAL_RCC_OscConfig+0x108>
 8000e30:	6823      	ldr	r3, [r4, #0]
 8000e32:	079b      	lsls	r3, r3, #30
 8000e34:	d502      	bpl.n	8000e3c <HAL_RCC_OscConfig+0xf8>
 8000e36:	692b      	ldr	r3, [r5, #16]
 8000e38:	2b01      	cmp	r3, #1
 8000e3a:	d1af      	bne.n	8000d9c <HAL_RCC_OscConfig+0x58>
 8000e3c:	6823      	ldr	r3, [r4, #0]
 8000e3e:	696a      	ldr	r2, [r5, #20]
 8000e40:	f023 03f8 	bic.w	r3, r3, #248	@ 0xf8
 8000e44:	ea43 03c2 	orr.w	r3, r3, r2, lsl #3
 8000e48:	6023      	str	r3, [r4, #0]
 8000e4a:	e785      	b.n	8000d58 <HAL_RCC_OscConfig+0x14>
 8000e4c:	692a      	ldr	r2, [r5, #16]
 8000e4e:	4b5b      	ldr	r3, [pc, #364]	@ (8000fbc <HAL_RCC_OscConfig+0x278>)
 8000e50:	b16a      	cbz	r2, 8000e6e <HAL_RCC_OscConfig+0x12a>
 8000e52:	2201      	movs	r2, #1
 8000e54:	601a      	str	r2, [r3, #0]
 8000e56:	f7ff fdb9 	bl	80009cc <HAL_GetTick>
 8000e5a:	4606      	mov	r6, r0
 8000e5c:	6823      	ldr	r3, [r4, #0]
 8000e5e:	079f      	lsls	r7, r3, #30
 8000e60:	d4ec      	bmi.n	8000e3c <HAL_RCC_OscConfig+0xf8>
 8000e62:	f7ff fdb3 	bl	80009cc <HAL_GetTick>
 8000e66:	1b80      	subs	r0, r0, r6
 8000e68:	2802      	cmp	r0, #2
 8000e6a:	d9f7      	bls.n	8000e5c <HAL_RCC_OscConfig+0x118>
 8000e6c:	e7ab      	b.n	8000dc6 <HAL_RCC_OscConfig+0x82>
 8000e6e:	601a      	str	r2, [r3, #0]
 8000e70:	f7ff fdac 	bl	80009cc <HAL_GetTick>
 8000e74:	4606      	mov	r6, r0
 8000e76:	6823      	ldr	r3, [r4, #0]
 8000e78:	0798      	lsls	r0, r3, #30
 8000e7a:	f57f af6d 	bpl.w	8000d58 <HAL_RCC_OscConfig+0x14>
 8000e7e:	f7ff fda5 	bl	80009cc <HAL_GetTick>
 8000e82:	1b80      	subs	r0, r0, r6
 8000e84:	2802      	cmp	r0, #2
 8000e86:	d9f6      	bls.n	8000e76 <HAL_RCC_OscConfig+0x132>
 8000e88:	e79d      	b.n	8000dc6 <HAL_RCC_OscConfig+0x82>
 8000e8a:	69aa      	ldr	r2, [r5, #24]
 8000e8c:	4e4a      	ldr	r6, [pc, #296]	@ (8000fb8 <HAL_RCC_OscConfig+0x274>)
 8000e8e:	4b4b      	ldr	r3, [pc, #300]	@ (8000fbc <HAL_RCC_OscConfig+0x278>)
 8000e90:	b1e2      	cbz	r2, 8000ecc <HAL_RCC_OscConfig+0x188>
 8000e92:	2201      	movs	r2, #1
 8000e94:	f8c3 2480 	str.w	r2, [r3, #1152]	@ 0x480
 8000e98:	f7ff fd98 	bl	80009cc <HAL_GetTick>
 8000e9c:	4604      	mov	r4, r0
 8000e9e:	6a73      	ldr	r3, [r6, #36]	@ 0x24
 8000ea0:	079b      	lsls	r3, r3, #30
 8000ea2:	d50d      	bpl.n	8000ec0 <HAL_RCC_OscConfig+0x17c>
 8000ea4:	f44f 52fa 	mov.w	r2, #8000	@ 0x1f40
 8000ea8:	4b45      	ldr	r3, [pc, #276]	@ (8000fc0 <HAL_RCC_OscConfig+0x27c>)
 8000eaa:	681b      	ldr	r3, [r3, #0]
 8000eac:	fbb3 f3f2 	udiv	r3, r3, r2
 8000eb0:	9301      	str	r3, [sp, #4]
 8000eb2:	bf00      	nop
 8000eb4:	9b01      	ldr	r3, [sp, #4]
 8000eb6:	1e5a      	subs	r2, r3, #1
 8000eb8:	9201      	str	r2, [sp, #4]
 8000eba:	2b00      	cmp	r3, #0
 8000ebc:	d1f9      	bne.n	8000eb2 <HAL_RCC_OscConfig+0x16e>
 8000ebe:	e74f      	b.n	8000d60 <HAL_RCC_OscConfig+0x1c>
 8000ec0:	f7ff fd84 	bl	80009cc <HAL_GetTick>
 8000ec4:	1b00      	subs	r0, r0, r4
 8000ec6:	2802      	cmp	r0, #2
 8000ec8:	d9e9      	bls.n	8000e9e <HAL_RCC_OscConfig+0x15a>
 8000eca:	e77c      	b.n	8000dc6 <HAL_RCC_OscConfig+0x82>
 8000ecc:	f8c3 2480 	str.w	r2, [r3, #1152]	@ 0x480
 8000ed0:	f7ff fd7c 	bl	80009cc <HAL_GetTick>
 8000ed4:	4604      	mov	r4, r0
 8000ed6:	6a73      	ldr	r3, [r6, #36]	@ 0x24
 8000ed8:	079f      	lsls	r7, r3, #30
 8000eda:	f57f af41 	bpl.w	8000d60 <HAL_RCC_OscConfig+0x1c>
 8000ede:	f7ff fd75 	bl	80009cc <HAL_GetTick>
 8000ee2:	1b00      	subs	r0, r0, r4
 8000ee4:	2802      	cmp	r0, #2
 8000ee6:	d9f6      	bls.n	8000ed6 <HAL_RCC_OscConfig+0x192>
 8000ee8:	e76d      	b.n	8000dc6 <HAL_RCC_OscConfig+0x82>
 8000eea:	4c33      	ldr	r4, [pc, #204]	@ (8000fb8 <HAL_RCC_OscConfig+0x274>)
 8000eec:	69e3      	ldr	r3, [r4, #28]
 8000eee:	00d8      	lsls	r0, r3, #3
 8000ef0:	d424      	bmi.n	8000f3c <HAL_RCC_OscConfig+0x1f8>
 8000ef2:	2701      	movs	r7, #1
 8000ef4:	69e3      	ldr	r3, [r4, #28]
 8000ef6:	f043 5380 	orr.w	r3, r3, #268435456	@ 0x10000000
 8000efa:	61e3      	str	r3, [r4, #28]
 8000efc:	69e3      	ldr	r3, [r4, #28]
 8000efe:	f003 5380 	and.w	r3, r3, #268435456	@ 0x10000000
 8000f02:	9300      	str	r3, [sp, #0]
 8000f04:	9b00      	ldr	r3, [sp, #0]
 8000f06:	4e2f      	ldr	r6, [pc, #188]	@ (8000fc4 <HAL_RCC_OscConfig+0x280>)
 8000f08:	6833      	ldr	r3, [r6, #0]
 8000f0a:	05d9      	lsls	r1, r3, #23
 8000f0c:	d518      	bpl.n	8000f40 <HAL_RCC_OscConfig+0x1fc>
 8000f0e:	68eb      	ldr	r3, [r5, #12]
 8000f10:	2b01      	cmp	r3, #1
 8000f12:	d126      	bne.n	8000f62 <HAL_RCC_OscConfig+0x21e>
 8000f14:	6a23      	ldr	r3, [r4, #32]
 8000f16:	f043 0301 	orr.w	r3, r3, #1
 8000f1a:	6223      	str	r3, [r4, #32]
 8000f1c:	f7ff fd56 	bl	80009cc <HAL_GetTick>
 8000f20:	f241 3888 	movw	r8, #5000	@ 0x1388
 8000f24:	4606      	mov	r6, r0
 8000f26:	6a23      	ldr	r3, [r4, #32]
 8000f28:	079b      	lsls	r3, r3, #30
 8000f2a:	d53f      	bpl.n	8000fac <HAL_RCC_OscConfig+0x268>
 8000f2c:	2f00      	cmp	r7, #0
 8000f2e:	f43f af1b 	beq.w	8000d68 <HAL_RCC_OscConfig+0x24>
 8000f32:	69e3      	ldr	r3, [r4, #28]
 8000f34:	f023 5380 	bic.w	r3, r3, #268435456	@ 0x10000000
 8000f38:	61e3      	str	r3, [r4, #28]
 8000f3a:	e715      	b.n	8000d68 <HAL_RCC_OscConfig+0x24>
 8000f3c:	2700      	movs	r7, #0
 8000f3e:	e7e2      	b.n	8000f06 <HAL_RCC_OscConfig+0x1c2>
 8000f40:	6833      	ldr	r3, [r6, #0]
 8000f42:	f443 7380 	orr.w	r3, r3, #256	@ 0x100
 8000f46:	6033      	str	r3, [r6, #0]
 8000f48:	f7ff fd40 	bl	80009cc <HAL_GetTick>
 8000f4c:	4680      	mov	r8, r0
 8000f4e:	6833      	ldr	r3, [r6, #0]
 8000f50:	05da      	lsls	r2, r3, #23
 8000f52:	d4dc      	bmi.n	8000f0e <HAL_RCC_OscConfig+0x1ca>
 8000f54:	f7ff fd3a 	bl	80009cc <HAL_GetTick>
 8000f58:	eba0 0008 	sub.w	r0, r0, r8
 8000f5c:	2864      	cmp	r0, #100	@ 0x64
 8000f5e:	d9f6      	bls.n	8000f4e <HAL_RCC_OscConfig+0x20a>
 8000f60:	e731      	b.n	8000dc6 <HAL_RCC_OscConfig+0x82>
 8000f62:	b9ab      	cbnz	r3, 8000f90 <HAL_RCC_OscConfig+0x24c>
 8000f64:	6a23      	ldr	r3, [r4, #32]
 8000f66:	f241 3888 	movw	r8, #5000	@ 0x1388
 8000f6a:	f023 0301 	bic.w	r3, r3, #1
 8000f6e:	6223      	str	r3, [r4, #32]
 8000f70:	6a23      	ldr	r3, [r4, #32]
 8000f72:	f023 0304 	bic.w	r3, r3, #4
 8000f76:	6223      	str	r3, [r4, #32]
 8000f78:	f7ff fd28 	bl	80009cc <HAL_GetTick>
 8000f7c:	4606      	mov	r6, r0
 8000f7e:	6a23      	ldr	r3, [r4, #32]
 8000f80:	0798      	lsls	r0, r3, #30
 8000f82:	d5d3      	bpl.n	8000f2c <HAL_RCC_OscConfig+0x1e8>
 8000f84:	f7ff fd22 	bl	80009cc <HAL_GetTick>
 8000f88:	1b80      	subs	r0, r0, r6
 8000f8a:	4540      	cmp	r0, r8
 8000f8c:	d9f7      	bls.n	8000f7e <HAL_RCC_OscConfig+0x23a>
 8000f8e:	e71a      	b.n	8000dc6 <HAL_RCC_OscConfig+0x82>
 8000f90:	2b05      	cmp	r3, #5
 8000f92:	6a23      	ldr	r3, [r4, #32]
 8000f94:	d103      	bne.n	8000f9e <HAL_RCC_OscConfig+0x25a>
 8000f96:	f043 0304 	orr.w	r3, r3, #4
 8000f9a:	6223      	str	r3, [r4, #32]
 8000f9c:	e7ba      	b.n	8000f14 <HAL_RCC_OscConfig+0x1d0>
 8000f9e:	f023 0301 	bic.w	r3, r3, #1
 8000fa2:	6223      	str	r3, [r4, #32]
 8000fa4:	6a23      	ldr	r3, [r4, #32]
 8000fa6:	f023 0304 	bic.w	r3, r3, #4
 8000faa:	e7b6      	b.n	8000f1a <HAL_RCC_OscConfig+0x1d6>
 8000fac:	f7ff fd0e 	bl	80009cc <HAL_GetTick>
 8000fb0:	1b80      	subs	r0, r0, r6
 8000fb2:	4540      	cmp	r0, r8
 8000fb4:	d9b7      	bls.n	8000f26 <HAL_RCC_OscConfig+0x1e2>
 8000fb6:	e706      	b.n	8000dc6 <HAL_RCC_OscConfig+0x82>
 8000fb8:	40021000 	.word	0x40021000
 8000fbc:	42420000 	.word	0x42420000
 8000fc0:	20000054 	.word	0x20000054
 8000fc4:	40007000 	.word	0x40007000
 8000fc8:	4c2a      	ldr	r4, [pc, #168]	@ (8001074 <HAL_RCC_OscConfig+0x330>)
 8000fca:	6862      	ldr	r2, [r4, #4]
 8000fcc:	f002 020c 	and.w	r2, r2, #12
 8000fd0:	2a08      	cmp	r2, #8
 8000fd2:	d03e      	beq.n	8001052 <HAL_RCC_OscConfig+0x30e>
 8000fd4:	2200      	movs	r2, #0
 8000fd6:	2b02      	cmp	r3, #2
 8000fd8:	4b27      	ldr	r3, [pc, #156]	@ (8001078 <HAL_RCC_OscConfig+0x334>)
 8000fda:	661a      	str	r2, [r3, #96]	@ 0x60
 8000fdc:	d12c      	bne.n	8001038 <HAL_RCC_OscConfig+0x2f4>
 8000fde:	f7ff fcf5 	bl	80009cc <HAL_GetTick>
 8000fe2:	4606      	mov	r6, r0
 8000fe4:	6823      	ldr	r3, [r4, #0]
 8000fe6:	0199      	lsls	r1, r3, #6
 8000fe8:	d420      	bmi.n	800102c <HAL_RCC_OscConfig+0x2e8>
 8000fea:	6a2b      	ldr	r3, [r5, #32]
 8000fec:	f5b3 3f80 	cmp.w	r3, #65536	@ 0x10000
 8000ff0:	d105      	bne.n	8000ffe <HAL_RCC_OscConfig+0x2ba>
 8000ff2:	6862      	ldr	r2, [r4, #4]
 8000ff4:	68a9      	ldr	r1, [r5, #8]
 8000ff6:	f422 3200 	bic.w	r2, r2, #131072	@ 0x20000
 8000ffa:	430a      	orrs	r2, r1
 8000ffc:	6062      	str	r2, [r4, #4]
 8000ffe:	6a69      	ldr	r1, [r5, #36]	@ 0x24
 8001000:	6862      	ldr	r2, [r4, #4]
 8001002:	430b      	orrs	r3, r1
 8001004:	f422 1274 	bic.w	r2, r2, #3997696	@ 0x3d0000
 8001008:	4313      	orrs	r3, r2
 800100a:	2201      	movs	r2, #1
 800100c:	6063      	str	r3, [r4, #4]
 800100e:	4b1a      	ldr	r3, [pc, #104]	@ (8001078 <HAL_RCC_OscConfig+0x334>)
 8001010:	661a      	str	r2, [r3, #96]	@ 0x60
 8001012:	f7ff fcdb 	bl	80009cc <HAL_GetTick>
 8001016:	4605      	mov	r5, r0
 8001018:	6823      	ldr	r3, [r4, #0]
 800101a:	019a      	lsls	r2, r3, #6
 800101c:	f53f aea8 	bmi.w	8000d70 <HAL_RCC_OscConfig+0x2c>
 8001020:	f7ff fcd4 	bl	80009cc <HAL_GetTick>
 8001024:	1b40      	subs	r0, r0, r5
 8001026:	2802      	cmp	r0, #2
 8001028:	d9f6      	bls.n	8001018 <HAL_RCC_OscConfig+0x2d4>
 800102a:	e6cc      	b.n	8000dc6 <HAL_RCC_OscConfig+0x82>
 800102c:	f7ff fcce 	bl	80009cc <HAL_GetTick>
 8001030:	1b80      	subs	r0, r0, r6
 8001032:	2802      	cmp	r0, #2
 8001034:	d9d6      	bls.n	8000fe4 <HAL_RCC_OscConfig+0x2a0>
 8001036:	e6c6      	b.n	8000dc6 <HAL_RCC_OscConfig+0x82>
 8001038:	f7ff fcc8 	bl	80009cc <HAL_GetTick>
 800103c:	4605      	mov	r5, r0
 800103e:	6823      	ldr	r3, [r4, #0]
 8001040:	019b      	lsls	r3, r3, #6
 8001042:	f57f ae95 	bpl.w	8000d70 <HAL_RCC_OscConfig+0x2c>
 8001046:	f7ff fcc1 	bl	80009cc <HAL_GetTick>
 800104a:	1b40      	subs	r0, r0, r5
 800104c:	2802      	cmp	r0, #2
 800104e:	d9f6      	bls.n	800103e <HAL_RCC_OscConfig+0x2fa>
 8001050:	e6b9      	b.n	8000dc6 <HAL_RCC_OscConfig+0x82>
 8001052:	2b01      	cmp	r3, #1
 8001054:	f43f aea2 	beq.w	8000d9c <HAL_RCC_OscConfig+0x58>
 8001058:	6860      	ldr	r0, [r4, #4]
 800105a:	6a2b      	ldr	r3, [r5, #32]
 800105c:	f400 3280 	and.w	r2, r0, #65536	@ 0x10000
 8001060:	429a      	cmp	r2, r3
 8001062:	f47f ae9b 	bne.w	8000d9c <HAL_RCC_OscConfig+0x58>
 8001066:	6a6b      	ldr	r3, [r5, #36]	@ 0x24
 8001068:	f400 1070 	and.w	r0, r0, #3932160	@ 0x3c0000
 800106c:	1ac0      	subs	r0, r0, r3
 800106e:	bf18      	it	ne
 8001070:	2001      	movne	r0, #1
 8001072:	e6a9      	b.n	8000dc8 <HAL_RCC_OscConfig+0x84>
 8001074:	40021000 	.word	0x40021000
 8001078:	42420000 	.word	0x42420000

0800107c <HAL_RCC_GetSysClockFreq>:
 800107c:	4a0d      	ldr	r2, [pc, #52]	@ (80010b4 <HAL_RCC_GetSysClockFreq+0x38>)
 800107e:	6853      	ldr	r3, [r2, #4]
 8001080:	f003 010c 	and.w	r1, r3, #12
 8001084:	2908      	cmp	r1, #8
 8001086:	d112      	bne.n	80010ae <HAL_RCC_GetSysClockFreq+0x32>
 8001088:	480b      	ldr	r0, [pc, #44]	@ (80010b8 <HAL_RCC_GetSysClockFreq+0x3c>)
 800108a:	f3c3 4183 	ubfx	r1, r3, #18, #4
 800108e:	03db      	lsls	r3, r3, #15
 8001090:	5c40      	ldrb	r0, [r0, r1]
 8001092:	d509      	bpl.n	80010a8 <HAL_RCC_GetSysClockFreq+0x2c>
 8001094:	6853      	ldr	r3, [r2, #4]
 8001096:	4a09      	ldr	r2, [pc, #36]	@ (80010bc <HAL_RCC_GetSysClockFreq+0x40>)
 8001098:	f3c3 4340 	ubfx	r3, r3, #17, #1
 800109c:	4350      	muls	r0, r2
 800109e:	4a08      	ldr	r2, [pc, #32]	@ (80010c0 <HAL_RCC_GetSysClockFreq+0x44>)
 80010a0:	5cd3      	ldrb	r3, [r2, r3]
 80010a2:	fbb0 f0f3 	udiv	r0, r0, r3
 80010a6:	4770      	bx	lr
 80010a8:	4b06      	ldr	r3, [pc, #24]	@ (80010c4 <HAL_RCC_GetSysClockFreq+0x48>)
 80010aa:	4358      	muls	r0, r3
 80010ac:	4770      	bx	lr
 80010ae:	4803      	ldr	r0, [pc, #12]	@ (80010bc <HAL_RCC_GetSysClockFreq+0x40>)
 80010b0:	4770      	bx	lr
 80010b2:	bf00      	nop
 80010b4:	40021000 	.word	0x40021000
 80010b8:	080026c2 	.word	0x080026c2
 80010bc:	007a1200 	.word	0x007a1200
 80010c0:	080026c0 	.word	0x080026c0
 80010c4:	003d0900 	.word	0x003d0900

080010c8 <HAL_RCC_ClockConfig>:
 80010c8:	e92d 41f0 	stmdb	sp!, {r4, r5, r6, r7, r8, lr}
 80010cc:	460d      	mov	r5, r1
 80010ce:	4604      	mov	r4, r0
 80010d0:	b910      	cbnz	r0, 80010d8 <HAL_RCC_ClockConfig+0x10>
 80010d2:	2001      	movs	r0, #1
 80010d4:	e8bd 81f0 	ldmia.w	sp!, {r4, r5, r6, r7, r8, pc}
 80010d8:	4a44      	ldr	r2, [pc, #272]	@ (80011ec <HAL_RCC_ClockConfig+0x124>)
 80010da:	6813      	ldr	r3, [r2, #0]
 80010dc:	f003 0307 	and.w	r3, r3, #7
 80010e0:	428b      	cmp	r3, r1
 80010e2:	d328      	bcc.n	8001136 <HAL_RCC_ClockConfig+0x6e>
 80010e4:	6821      	ldr	r1, [r4, #0]
 80010e6:	078e      	lsls	r6, r1, #30
 80010e8:	d430      	bmi.n	800114c <HAL_RCC_ClockConfig+0x84>
 80010ea:	07ca      	lsls	r2, r1, #31
 80010ec:	d443      	bmi.n	8001176 <HAL_RCC_ClockConfig+0xae>
 80010ee:	4a3f      	ldr	r2, [pc, #252]	@ (80011ec <HAL_RCC_ClockConfig+0x124>)
 80010f0:	6813      	ldr	r3, [r2, #0]
 80010f2:	f003 0307 	and.w	r3, r3, #7
 80010f6:	42ab      	cmp	r3, r5
 80010f8:	d865      	bhi.n	80011c6 <HAL_RCC_ClockConfig+0xfe>
 80010fa:	6822      	ldr	r2, [r4, #0]
 80010fc:	4d3c      	ldr	r5, [pc, #240]	@ (80011f0 <HAL_RCC_ClockConfig+0x128>)
 80010fe:	f012 0f04 	tst.w	r2, #4
 8001102:	d16c      	bne.n	80011de <HAL_RCC_ClockConfig+0x116>
 8001104:	0713      	lsls	r3, r2, #28
 8001106:	d506      	bpl.n	8001116 <HAL_RCC_ClockConfig+0x4e>
 8001108:	686b      	ldr	r3, [r5, #4]
 800110a:	6922      	ldr	r2, [r4, #16]
 800110c:	f423 5360 	bic.w	r3, r3, #14336	@ 0x3800
 8001110:	ea43 03c2 	orr.w	r3, r3, r2, lsl #3
 8001114:	606b      	str	r3, [r5, #4]
 8001116:	f7ff ffb1 	bl	800107c <HAL_RCC_GetSysClockFreq>
 800111a:	686b      	ldr	r3, [r5, #4]
 800111c:	4a35      	ldr	r2, [pc, #212]	@ (80011f4 <HAL_RCC_ClockConfig+0x12c>)
 800111e:	f3c3 1303 	ubfx	r3, r3, #4, #4
 8001122:	5cd3      	ldrb	r3, [r2, r3]
 8001124:	40d8      	lsrs	r0, r3
 8001126:	4b34      	ldr	r3, [pc, #208]	@ (80011f8 <HAL_RCC_ClockConfig+0x130>)
 8001128:	6018      	str	r0, [r3, #0]
 800112a:	4b34      	ldr	r3, [pc, #208]	@ (80011fc <HAL_RCC_ClockConfig+0x134>)
 800112c:	6818      	ldr	r0, [r3, #0]
 800112e:	f7ff fc0b 	bl	8000948 <HAL_InitTick>
 8001132:	2000      	movs	r0, #0
 8001134:	e7ce      	b.n	80010d4 <HAL_RCC_ClockConfig+0xc>
 8001136:	6813      	ldr	r3, [r2, #0]
 8001138:	f023 0307 	bic.w	r3, r3, #7
 800113c:	430b      	orrs	r3, r1
 800113e:	6013      	str	r3, [r2, #0]
 8001140:	6813      	ldr	r3, [r2, #0]
 8001142:	f003 0307 	and.w	r3, r3, #7
 8001146:	428b      	cmp	r3, r1
 8001148:	d1c3      	bne.n	80010d2 <HAL_RCC_ClockConfig+0xa>
 800114a:	e7cb      	b.n	80010e4 <HAL_RCC_ClockConfig+0x1c>
 800114c:	4b28      	ldr	r3, [pc, #160]	@ (80011f0 <HAL_RCC_ClockConfig+0x128>)
 800114e:	f011 0f04 	tst.w	r1, #4
 8001152:	bf1e      	ittt	ne
 8001154:	685a      	ldrne	r2, [r3, #4]
 8001156:	f442 62e0 	orrne.w	r2, r2, #1792	@ 0x700
 800115a:	605a      	strne	r2, [r3, #4]
 800115c:	0708      	lsls	r0, r1, #28
 800115e:	bf42      	ittt	mi
 8001160:	685a      	ldrmi	r2, [r3, #4]
 8001162:	f442 5260 	orrmi.w	r2, r2, #14336	@ 0x3800
 8001166:	605a      	strmi	r2, [r3, #4]
 8001168:	685a      	ldr	r2, [r3, #4]
 800116a:	68a0      	ldr	r0, [r4, #8]
 800116c:	f022 02f0 	bic.w	r2, r2, #240	@ 0xf0
 8001170:	4302      	orrs	r2, r0
 8001172:	605a      	str	r2, [r3, #4]
 8001174:	e7b9      	b.n	80010ea <HAL_RCC_ClockConfig+0x22>
 8001176:	6862      	ldr	r2, [r4, #4]
 8001178:	4e1d      	ldr	r6, [pc, #116]	@ (80011f0 <HAL_RCC_ClockConfig+0x128>)
 800117a:	2a01      	cmp	r2, #1
 800117c:	6833      	ldr	r3, [r6, #0]
 800117e:	d11a      	bne.n	80011b6 <HAL_RCC_ClockConfig+0xee>
 8001180:	f413 3f00 	tst.w	r3, #131072	@ 0x20000
 8001184:	d0a5      	beq.n	80010d2 <HAL_RCC_ClockConfig+0xa>
 8001186:	6873      	ldr	r3, [r6, #4]
 8001188:	f241 3888 	movw	r8, #5000	@ 0x1388
 800118c:	f023 0303 	bic.w	r3, r3, #3
 8001190:	4313      	orrs	r3, r2
 8001192:	6073      	str	r3, [r6, #4]
 8001194:	f7ff fc1a 	bl	80009cc <HAL_GetTick>
 8001198:	4607      	mov	r7, r0
 800119a:	6873      	ldr	r3, [r6, #4]
 800119c:	6862      	ldr	r2, [r4, #4]
 800119e:	f003 030c 	and.w	r3, r3, #12
 80011a2:	ebb3 0f82 	cmp.w	r3, r2, lsl #2
 80011a6:	d0a2      	beq.n	80010ee <HAL_RCC_ClockConfig+0x26>
 80011a8:	f7ff fc10 	bl	80009cc <HAL_GetTick>
 80011ac:	1bc0      	subs	r0, r0, r7
 80011ae:	4540      	cmp	r0, r8
 80011b0:	d9f3      	bls.n	800119a <HAL_RCC_ClockConfig+0xd2>
 80011b2:	2003      	movs	r0, #3
 80011b4:	e78e      	b.n	80010d4 <HAL_RCC_ClockConfig+0xc>
 80011b6:	2a02      	cmp	r2, #2
 80011b8:	d102      	bne.n	80011c0 <HAL_RCC_ClockConfig+0xf8>
 80011ba:	f013 7f00 	tst.w	r3, #33554432	@ 0x2000000
 80011be:	e7e1      	b.n	8001184 <HAL_RCC_ClockConfig+0xbc>
 80011c0:	f013 0f02 	tst.w	r3, #2
 80011c4:	e7de      	b.n	8001184 <HAL_RCC_ClockConfig+0xbc>
 80011c6:	6813      	ldr	r3, [r2, #0]
 80011c8:	f023 0307 	bic.w	r3, r3, #7
 80011cc:	432b      	orrs	r3, r5
 80011ce:	6013      	str	r3, [r2, #0]
 80011d0:	6813      	ldr	r3, [r2, #0]
 80011d2:	f003 0307 	and.w	r3, r3, #7
 80011d6:	42ab      	cmp	r3, r5
 80011d8:	f47f af7b 	bne.w	80010d2 <HAL_RCC_ClockConfig+0xa>
 80011dc:	e78d      	b.n	80010fa <HAL_RCC_ClockConfig+0x32>
 80011de:	686b      	ldr	r3, [r5, #4]
 80011e0:	68e1      	ldr	r1, [r4, #12]
 80011e2:	f423 63e0 	bic.w	r3, r3, #1792	@ 0x700
 80011e6:	430b      	orrs	r3, r1
 80011e8:	606b      	str	r3, [r5, #4]
 80011ea:	e78b      	b.n	8001104 <HAL_RCC_ClockConfig+0x3c>
 80011ec:	40022000 	.word	0x40022000
 80011f0:	40021000 	.word	0x40021000
 80011f4:	080026b0 	.word	0x080026b0
 80011f8:	20000054 	.word	0x20000054
 80011fc:	2000005c 	.word	0x2000005c

08001200 <HAL_RCC_GetPCLK1Freq>:
 8001200:	4b04      	ldr	r3, [pc, #16]	@ (8001214 <HAL_RCC_GetPCLK1Freq+0x14>)
 8001202:	4a05      	ldr	r2, [pc, #20]	@ (8001218 <HAL_RCC_GetPCLK1Freq+0x18>)
 8001204:	685b      	ldr	r3, [r3, #4]
 8001206:	f3c3 2302 	ubfx	r3, r3, #8, #3
 800120a:	5cd3      	ldrb	r3, [r2, r3]
 800120c:	4a03      	ldr	r2, [pc, #12]	@ (800121c <HAL_RCC_GetPCLK1Freq+0x1c>)
 800120e:	6810      	ldr	r0, [r2, #0]
 8001210:	40d8      	lsrs	r0, r3
 8001212:	4770      	bx	lr
 8001214:	40021000 	.word	0x40021000
 8001218:	080026a8 	.word	0x080026a8
 800121c:	20000054 	.word	0x20000054

08001220 <HAL_RCC_GetPCLK2Freq>:
 8001220:	4b04      	ldr	r3, [pc, #16]	@ (8001234 <HAL_RCC_GetPCLK2Freq+0x14>)
 8001222:	4a05      	ldr	r2, [pc, #20]	@ (8001238 <HAL_RCC_GetPCLK2Freq+0x18>)
 8001224:	685b      	ldr	r3, [r3, #4]
 8001226:	f3c3 23c2 	ubfx	r3, r3, #11, #3
 800122a:	5cd3      	ldrb	r3, [r2, r3]
 800122c:	4a03      	ldr	r2, [pc, #12]	@ (800123c <HAL_RCC_GetPCLK2Freq+0x1c>)
 800122e:	6810      	ldr	r0, [r2, #0]
 8001230:	40d8      	lsrs	r0, r3
 8001232:	4770      	bx	lr
 8001234:	40021000 	.word	0x40021000
 8001238:	080026a8 	.word	0x080026a8
 800123c:	20000054 	.word	0x20000054

08001240 <TIM_Base_SetConfig>:
 8001240:	4a17      	ldr	r2, [pc, #92]	@ (80012a0 <TIM_Base_SetConfig+0x60>)
 8001242:	6803      	ldr	r3, [r0, #0]
 8001244:	4290      	cmp	r0, r2
 8001246:	d00a      	beq.n	800125e <TIM_Base_SetConfig+0x1e>
 8001248:	f1b0 4f80 	cmp.w	r0, #1073741824	@ 0x40000000
 800124c:	d007      	beq.n	800125e <TIM_Base_SetConfig+0x1e>
 800124e:	f5a2 3294 	sub.w	r2, r2, #75776	@ 0x12800
 8001252:	4290      	cmp	r0, r2
 8001254:	d003      	beq.n	800125e <TIM_Base_SetConfig+0x1e>
 8001256:	f502 6280 	add.w	r2, r2, #1024	@ 0x400
 800125a:	4290      	cmp	r0, r2
 800125c:	d107      	bne.n	800126e <TIM_Base_SetConfig+0x2e>
 800125e:	684a      	ldr	r2, [r1, #4]
 8001260:	f023 0370 	bic.w	r3, r3, #112	@ 0x70
 8001264:	4313      	orrs	r3, r2
 8001266:	68ca      	ldr	r2, [r1, #12]
 8001268:	f423 7340 	bic.w	r3, r3, #768	@ 0x300
 800126c:	4313      	orrs	r3, r2
 800126e:	694a      	ldr	r2, [r1, #20]
 8001270:	f023 0380 	bic.w	r3, r3, #128	@ 0x80
 8001274:	4313      	orrs	r3, r2
 8001276:	6003      	str	r3, [r0, #0]
 8001278:	688b      	ldr	r3, [r1, #8]
 800127a:	62c3      	str	r3, [r0, #44]	@ 0x2c
 800127c:	680b      	ldr	r3, [r1, #0]
 800127e:	6283      	str	r3, [r0, #40]	@ 0x28
 8001280:	4b07      	ldr	r3, [pc, #28]	@ (80012a0 <TIM_Base_SetConfig+0x60>)
 8001282:	4298      	cmp	r0, r3
 8001284:	bf04      	itt	eq
 8001286:	690b      	ldreq	r3, [r1, #16]
 8001288:	6303      	streq	r3, [r0, #48]	@ 0x30
 800128a:	2301      	movs	r3, #1
 800128c:	6143      	str	r3, [r0, #20]
 800128e:	6903      	ldr	r3, [r0, #16]
 8001290:	07db      	lsls	r3, r3, #31
 8001292:	bf42      	ittt	mi
 8001294:	6903      	ldrmi	r3, [r0, #16]
 8001296:	f023 0301 	bicmi.w	r3, r3, #1
 800129a:	6103      	strmi	r3, [r0, #16]
 800129c:	4770      	bx	lr
 800129e:	bf00      	nop
 80012a0:	40012c00 	.word	0x40012c00

080012a4 <HAL_TIM_Base_Init>:
 80012a4:	b510      	push	{r4, lr}
 80012a6:	4604      	mov	r4, r0
 80012a8:	b330      	cbz	r0, 80012f8 <HAL_TIM_Base_Init+0x54>
 80012aa:	f890 303d 	ldrb.w	r3, [r0, #61]	@ 0x3d
 80012ae:	f003 02ff 	and.w	r2, r3, #255	@ 0xff
 80012b2:	b91b      	cbnz	r3, 80012bc <HAL_TIM_Base_Init+0x18>
 80012b4:	f880 203c 	strb.w	r2, [r0, #60]	@ 0x3c
 80012b8:	f7ff fa0c 	bl	80006d4 <HAL_TIM_Base_MspInit>
 80012bc:	2302      	movs	r3, #2
 80012be:	6820      	ldr	r0, [r4, #0]
 80012c0:	f884 303d 	strb.w	r3, [r4, #61]	@ 0x3d
 80012c4:	1d21      	adds	r1, r4, #4
 80012c6:	f7ff ffbb 	bl	8001240 <TIM_Base_SetConfig>
 80012ca:	2301      	movs	r3, #1
 80012cc:	2000      	movs	r0, #0
 80012ce:	f884 3046 	strb.w	r3, [r4, #70]	@ 0x46
 80012d2:	f884 303e 	strb.w	r3, [r4, #62]	@ 0x3e
 80012d6:	f884 303f 	strb.w	r3, [r4, #63]	@ 0x3f
 80012da:	f884 3040 	strb.w	r3, [r4, #64]	@ 0x40
 80012de:	f884 3041 	strb.w	r3, [r4, #65]	@ 0x41
 80012e2:	f884 3042 	strb.w	r3, [r4, #66]	@ 0x42
 80012e6:	f884 3043 	strb.w	r3, [r4, #67]	@ 0x43
 80012ea:	f884 3044 	strb.w	r3, [r4, #68]	@ 0x44
 80012ee:	f884 3045 	strb.w	r3, [r4, #69]	@ 0x45
 80012f2:	f884 303d 	strb.w	r3, [r4, #61]	@ 0x3d
 80012f6:	bd10      	pop	{r4, pc}
 80012f8:	2001      	movs	r0, #1
 80012fa:	e7fc      	b.n	80012f6 <HAL_TIM_Base_Init+0x52>

080012fc <TIM_ETR_SetConfig>:
 80012fc:	b510      	push	{r4, lr}
 80012fe:	6884      	ldr	r4, [r0, #8]
 8001300:	430a      	orrs	r2, r1
 8001302:	f424 447f 	bic.w	r4, r4, #65280	@ 0xff00
 8001306:	ea42 2203 	orr.w	r2, r2, r3, lsl #8
 800130a:	4322      	orrs	r2, r4
 800130c:	6082      	str	r2, [r0, #8]
 800130e:	bd10      	pop	{r4, pc}

08001310 <HAL_TIM_ConfigClockSource>:
 8001310:	b538      	push	{r3, r4, r5, lr}
 8001312:	f890 303c 	ldrb.w	r3, [r0, #60]	@ 0x3c
 8001316:	4604      	mov	r4, r0
 8001318:	2b01      	cmp	r3, #1
 800131a:	f04f 0002 	mov.w	r0, #2
 800131e:	f000 808e 	beq.w	800143e <HAL_TIM_ConfigClockSource+0x12e>
 8001322:	2201      	movs	r2, #1
 8001324:	f884 003d 	strb.w	r0, [r4, #61]	@ 0x3d
 8001328:	6820      	ldr	r0, [r4, #0]
 800132a:	f884 203c 	strb.w	r2, [r4, #60]	@ 0x3c
 800132e:	6883      	ldr	r3, [r0, #8]
 8001330:	f423 437f 	bic.w	r3, r3, #65280	@ 0xff00
 8001334:	f023 0377 	bic.w	r3, r3, #119	@ 0x77
 8001338:	6083      	str	r3, [r0, #8]
 800133a:	680b      	ldr	r3, [r1, #0]
 800133c:	2b60      	cmp	r3, #96	@ 0x60
 800133e:	d04f      	beq.n	80013e0 <HAL_TIM_ConfigClockSource+0xd0>
 8001340:	d832      	bhi.n	80013a8 <HAL_TIM_ConfigClockSource+0x98>
 8001342:	2b40      	cmp	r3, #64	@ 0x40
 8001344:	d064      	beq.n	8001410 <HAL_TIM_ConfigClockSource+0x100>
 8001346:	d816      	bhi.n	8001376 <HAL_TIM_ConfigClockSource+0x66>
 8001348:	2b20      	cmp	r3, #32
 800134a:	d00d      	beq.n	8001368 <HAL_TIM_ConfigClockSource+0x58>
 800134c:	d80a      	bhi.n	8001364 <HAL_TIM_ConfigClockSource+0x54>
 800134e:	f033 0110 	bics.w	r1, r3, #16
 8001352:	d009      	beq.n	8001368 <HAL_TIM_ConfigClockSource+0x58>
 8001354:	2301      	movs	r3, #1
 8001356:	f884 303d 	strb.w	r3, [r4, #61]	@ 0x3d
 800135a:	2300      	movs	r3, #0
 800135c:	f884 303c 	strb.w	r3, [r4, #60]	@ 0x3c
 8001360:	4610      	mov	r0, r2
 8001362:	bd38      	pop	{r3, r4, r5, pc}
 8001364:	2b30      	cmp	r3, #48	@ 0x30
 8001366:	d1f5      	bne.n	8001354 <HAL_TIM_ConfigClockSource+0x44>
 8001368:	6882      	ldr	r2, [r0, #8]
 800136a:	f022 0270 	bic.w	r2, r2, #112	@ 0x70
 800136e:	4313      	orrs	r3, r2
 8001370:	f043 0307 	orr.w	r3, r3, #7
 8001374:	e028      	b.n	80013c8 <HAL_TIM_ConfigClockSource+0xb8>
 8001376:	2b50      	cmp	r3, #80	@ 0x50
 8001378:	d1ec      	bne.n	8001354 <HAL_TIM_ConfigClockSource+0x44>
 800137a:	684a      	ldr	r2, [r1, #4]
 800137c:	68cd      	ldr	r5, [r1, #12]
 800137e:	6a01      	ldr	r1, [r0, #32]
 8001380:	6a03      	ldr	r3, [r0, #32]
 8001382:	f021 010a 	bic.w	r1, r1, #10
 8001386:	f023 0301 	bic.w	r3, r3, #1
 800138a:	6203      	str	r3, [r0, #32]
 800138c:	6983      	ldr	r3, [r0, #24]
 800138e:	430a      	orrs	r2, r1
 8001390:	f023 03f0 	bic.w	r3, r3, #240	@ 0xf0
 8001394:	ea43 1305 	orr.w	r3, r3, r5, lsl #4
 8001398:	6183      	str	r3, [r0, #24]
 800139a:	6202      	str	r2, [r0, #32]
 800139c:	6883      	ldr	r3, [r0, #8]
 800139e:	f023 0370 	bic.w	r3, r3, #112	@ 0x70
 80013a2:	f043 0357 	orr.w	r3, r3, #87	@ 0x57
 80013a6:	e00f      	b.n	80013c8 <HAL_TIM_ConfigClockSource+0xb8>
 80013a8:	f5b3 5f80 	cmp.w	r3, #4096	@ 0x1000
 80013ac:	d00d      	beq.n	80013ca <HAL_TIM_ConfigClockSource+0xba>
 80013ae:	f5b3 5f00 	cmp.w	r3, #8192	@ 0x2000
 80013b2:	d00c      	beq.n	80013ce <HAL_TIM_ConfigClockSource+0xbe>
 80013b4:	2b70      	cmp	r3, #112	@ 0x70
 80013b6:	d1cd      	bne.n	8001354 <HAL_TIM_ConfigClockSource+0x44>
 80013b8:	68cb      	ldr	r3, [r1, #12]
 80013ba:	e9d1 2101 	ldrd	r2, r1, [r1, #4]
 80013be:	f7ff ff9d 	bl	80012fc <TIM_ETR_SetConfig>
 80013c2:	6883      	ldr	r3, [r0, #8]
 80013c4:	f043 0377 	orr.w	r3, r3, #119	@ 0x77
 80013c8:	6083      	str	r3, [r0, #8]
 80013ca:	2200      	movs	r2, #0
 80013cc:	e7c2      	b.n	8001354 <HAL_TIM_ConfigClockSource+0x44>
 80013ce:	68cb      	ldr	r3, [r1, #12]
 80013d0:	e9d1 2101 	ldrd	r2, r1, [r1, #4]
 80013d4:	f7ff ff92 	bl	80012fc <TIM_ETR_SetConfig>
 80013d8:	6883      	ldr	r3, [r0, #8]
 80013da:	f443 4380 	orr.w	r3, r3, #16384	@ 0x4000
 80013de:	e7f3      	b.n	80013c8 <HAL_TIM_ConfigClockSource+0xb8>
 80013e0:	6a03      	ldr	r3, [r0, #32]
 80013e2:	6a02      	ldr	r2, [r0, #32]
 80013e4:	684d      	ldr	r5, [r1, #4]
 80013e6:	f022 0210 	bic.w	r2, r2, #16
 80013ea:	68c9      	ldr	r1, [r1, #12]
 80013ec:	6202      	str	r2, [r0, #32]
 80013ee:	6982      	ldr	r2, [r0, #24]
 80013f0:	f023 03a0 	bic.w	r3, r3, #160	@ 0xa0
 80013f4:	f422 4270 	bic.w	r2, r2, #61440	@ 0xf000
 80013f8:	ea43 1305 	orr.w	r3, r3, r5, lsl #4
 80013fc:	ea42 3201 	orr.w	r2, r2, r1, lsl #12
 8001400:	6182      	str	r2, [r0, #24]
 8001402:	6203      	str	r3, [r0, #32]
 8001404:	6883      	ldr	r3, [r0, #8]
 8001406:	f023 0370 	bic.w	r3, r3, #112	@ 0x70
 800140a:	f043 0367 	orr.w	r3, r3, #103	@ 0x67
 800140e:	e7db      	b.n	80013c8 <HAL_TIM_ConfigClockSource+0xb8>
 8001410:	684a      	ldr	r2, [r1, #4]
 8001412:	68cd      	ldr	r5, [r1, #12]
 8001414:	6a01      	ldr	r1, [r0, #32]
 8001416:	6a03      	ldr	r3, [r0, #32]
 8001418:	f021 010a 	bic.w	r1, r1, #10
 800141c:	f023 0301 	bic.w	r3, r3, #1
 8001420:	6203      	str	r3, [r0, #32]
 8001422:	6983      	ldr	r3, [r0, #24]
 8001424:	430a      	orrs	r2, r1
 8001426:	f023 03f0 	bic.w	r3, r3, #240	@ 0xf0
 800142a:	ea43 1305 	orr.w	r3, r3, r5, lsl #4
 800142e:	6183      	str	r3, [r0, #24]
 8001430:	6202      	str	r2, [r0, #32]
 8001432:	6883      	ldr	r3, [r0, #8]
 8001434:	f023 0370 	bic.w	r3, r3, #112	@ 0x70
 8001438:	f043 0347 	orr.w	r3, r3, #71	@ 0x47
 800143c:	e7c4      	b.n	80013c8 <HAL_TIM_ConfigClockSource+0xb8>
 800143e:	4602      	mov	r2, r0
 8001440:	e78e      	b.n	8001360 <HAL_TIM_ConfigClockSource+0x50>
	...

08001444 <HAL_TIMEx_MasterConfigSynchronization>:
 8001444:	b530      	push	{r4, r5, lr}
 8001446:	f890 303c 	ldrb.w	r3, [r0, #60]	@ 0x3c
 800144a:	4602      	mov	r2, r0
 800144c:	2b01      	cmp	r3, #1
 800144e:	f04f 0002 	mov.w	r0, #2
 8001452:	d022      	beq.n	800149a <HAL_TIMEx_MasterConfigSynchronization+0x56>
 8001454:	6813      	ldr	r3, [r2, #0]
 8001456:	f882 003d 	strb.w	r0, [r2, #61]	@ 0x3d
 800145a:	685c      	ldr	r4, [r3, #4]
 800145c:	680d      	ldr	r5, [r1, #0]
 800145e:	f024 0470 	bic.w	r4, r4, #112	@ 0x70
 8001462:	432c      	orrs	r4, r5
 8001464:	6898      	ldr	r0, [r3, #8]
 8001466:	605c      	str	r4, [r3, #4]
 8001468:	4c0c      	ldr	r4, [pc, #48]	@ (800149c <HAL_TIMEx_MasterConfigSynchronization+0x58>)
 800146a:	42a3      	cmp	r3, r4
 800146c:	d00a      	beq.n	8001484 <HAL_TIMEx_MasterConfigSynchronization+0x40>
 800146e:	f1b3 4f80 	cmp.w	r3, #1073741824	@ 0x40000000
 8001472:	d007      	beq.n	8001484 <HAL_TIMEx_MasterConfigSynchronization+0x40>
 8001474:	f5a4 3494 	sub.w	r4, r4, #75776	@ 0x12800
 8001478:	42a3      	cmp	r3, r4
 800147a:	d003      	beq.n	8001484 <HAL_TIMEx_MasterConfigSynchronization+0x40>
 800147c:	f504 6480 	add.w	r4, r4, #1024	@ 0x400
 8001480:	42a3      	cmp	r3, r4
 8001482:	d104      	bne.n	800148e <HAL_TIMEx_MasterConfigSynchronization+0x4a>
 8001484:	6849      	ldr	r1, [r1, #4]
 8001486:	f020 0080 	bic.w	r0, r0, #128	@ 0x80
 800148a:	4301      	orrs	r1, r0
 800148c:	6099      	str	r1, [r3, #8]
 800148e:	2301      	movs	r3, #1
 8001490:	2000      	movs	r0, #0
 8001492:	f882 303d 	strb.w	r3, [r2, #61]	@ 0x3d
 8001496:	f882 003c 	strb.w	r0, [r2, #60]	@ 0x3c
 800149a:	bd30      	pop	{r4, r5, pc}
 800149c:	40012c00 	.word	0x40012c00

080014a0 <UART_EndRxTransfer>:
 80014a0:	6802      	ldr	r2, [r0, #0]
 80014a2:	f102 030c 	add.w	r3, r2, #12
 80014a6:	e853 3f00 	ldrex	r3, [r3]
 80014aa:	f423 7390 	bic.w	r3, r3, #288	@ 0x120
 80014ae:	320c      	adds	r2, #12
 80014b0:	e842 3100 	strex	r1, r3, [r2]
 80014b4:	6802      	ldr	r2, [r0, #0]
 80014b6:	2900      	cmp	r1, #0
 80014b8:	d1f2      	bne.n	80014a0 <UART_EndRxTransfer>
 80014ba:	f102 0314 	add.w	r3, r2, #20
 80014be:	e853 3f00 	ldrex	r3, [r3]
 80014c2:	f023 0301 	bic.w	r3, r3, #1
 80014c6:	f102 0c14 	add.w	ip, r2, #20
 80014ca:	e84c 3100 	strex	r1, r3, [ip]
 80014ce:	2900      	cmp	r1, #0
 80014d0:	d1f3      	bne.n	80014ba <UART_EndRxTransfer+0x1a>
 80014d2:	6b03      	ldr	r3, [r0, #48]	@ 0x30
 80014d4:	2b01      	cmp	r3, #1
 80014d6:	d10b      	bne.n	80014f0 <UART_EndRxTransfer+0x50>
 80014d8:	f102 030c 	add.w	r3, r2, #12
 80014dc:	e853 3f00 	ldrex	r3, [r3]
 80014e0:	f023 0310 	bic.w	r3, r3, #16
 80014e4:	f102 0c0c 	add.w	ip, r2, #12
 80014e8:	e84c 3100 	strex	r1, r3, [ip]
 80014ec:	2900      	cmp	r1, #0
 80014ee:	d1f3      	bne.n	80014d8 <UART_EndRxTransfer+0x38>
 80014f0:	2320      	movs	r3, #32
 80014f2:	f880 3042 	strb.w	r3, [r0, #66]	@ 0x42
 80014f6:	2300      	movs	r3, #0
 80014f8:	6303      	str	r3, [r0, #48]	@ 0x30
 80014fa:	4770      	bx	lr

080014fc <UART_SetConfig>:
 80014fc:	b510      	push	{r4, lr}
 80014fe:	4604      	mov	r4, r0
 8001500:	6803      	ldr	r3, [r0, #0]
 8001502:	68c1      	ldr	r1, [r0, #12]
 8001504:	691a      	ldr	r2, [r3, #16]
 8001506:	f422 5240 	bic.w	r2, r2, #12288	@ 0x3000
 800150a:	430a      	orrs	r2, r1
 800150c:	611a      	str	r2, [r3, #16]
 800150e:	6882      	ldr	r2, [r0, #8]
 8001510:	6900      	ldr	r0, [r0, #16]
 8001512:	68d9      	ldr	r1, [r3, #12]
 8001514:	4302      	orrs	r2, r0
 8001516:	6960      	ldr	r0, [r4, #20]
 8001518:	f421 51b0 	bic.w	r1, r1, #5632	@ 0x1600
 800151c:	f021 010c 	bic.w	r1, r1, #12
 8001520:	4302      	orrs	r2, r0
 8001522:	430a      	orrs	r2, r1
 8001524:	60da      	str	r2, [r3, #12]
 8001526:	695a      	ldr	r2, [r3, #20]
 8001528:	69a1      	ldr	r1, [r4, #24]
 800152a:	f422 7240 	bic.w	r2, r2, #768	@ 0x300
 800152e:	430a      	orrs	r2, r1
 8001530:	615a      	str	r2, [r3, #20]
 8001532:	4a0e      	ldr	r2, [pc, #56]	@ (800156c <UART_SetConfig+0x70>)
 8001534:	4293      	cmp	r3, r2
 8001536:	d115      	bne.n	8001564 <UART_SetConfig+0x68>
 8001538:	f7ff fe72 	bl	8001220 <HAL_RCC_GetPCLK2Freq>
 800153c:	2319      	movs	r3, #25
 800153e:	4343      	muls	r3, r0
 8001540:	6862      	ldr	r2, [r4, #4]
 8001542:	6820      	ldr	r0, [r4, #0]
 8001544:	0092      	lsls	r2, r2, #2
 8001546:	fbb3 f3f2 	udiv	r3, r3, r2
 800154a:	2264      	movs	r2, #100	@ 0x64
 800154c:	fbb3 f1f2 	udiv	r1, r3, r2
 8001550:	fb02 3311 	mls	r3, r2, r1, r3
 8001554:	011b      	lsls	r3, r3, #4
 8001556:	3332      	adds	r3, #50	@ 0x32
 8001558:	fbb3 f3f2 	udiv	r3, r3, r2
 800155c:	eb03 1301 	add.w	r3, r3, r1, lsl #4
 8001560:	6083      	str	r3, [r0, #8]
 8001562:	bd10      	pop	{r4, pc}
 8001564:	f7ff fe4c 	bl	8001200 <HAL_RCC_GetPCLK1Freq>
 8001568:	e7e8      	b.n	800153c <UART_SetConfig+0x40>
 800156a:	bf00      	nop
 800156c:	40013800 	.word	0x40013800

08001570 <UART_WaitOnFlagUntilTimeout.constprop.0>:
 8001570:	b5f7      	push	{r0, r1, r2, r4, r5, r6, r7, lr}
 8001572:	4605      	mov	r5, r0
 8001574:	460c      	mov	r4, r1
 8001576:	4617      	mov	r7, r2
 8001578:	461e      	mov	r6, r3
 800157a:	682a      	ldr	r2, [r5, #0]
 800157c:	6813      	ldr	r3, [r2, #0]
 800157e:	ea34 0303 	bics.w	r3, r4, r3
 8001582:	d101      	bne.n	8001588 <UART_WaitOnFlagUntilTimeout.constprop.0+0x18>
 8001584:	2000      	movs	r0, #0
 8001586:	e021      	b.n	80015cc <UART_WaitOnFlagUntilTimeout.constprop.0+0x5c>
 8001588:	1c70      	adds	r0, r6, #1
 800158a:	d0f7      	beq.n	800157c <UART_WaitOnFlagUntilTimeout.constprop.0+0xc>
 800158c:	f7ff fa1e 	bl	80009cc <HAL_GetTick>
 8001590:	1bc0      	subs	r0, r0, r7
 8001592:	4286      	cmp	r6, r0
 8001594:	d31c      	bcc.n	80015d0 <UART_WaitOnFlagUntilTimeout.constprop.0+0x60>
 8001596:	b1de      	cbz	r6, 80015d0 <UART_WaitOnFlagUntilTimeout.constprop.0+0x60>
 8001598:	682b      	ldr	r3, [r5, #0]
 800159a:	68da      	ldr	r2, [r3, #12]
 800159c:	0751      	lsls	r1, r2, #29
 800159e:	d5ec      	bpl.n	800157a <UART_WaitOnFlagUntilTimeout.constprop.0+0xa>
 80015a0:	2c80      	cmp	r4, #128	@ 0x80
 80015a2:	d0ea      	beq.n	800157a <UART_WaitOnFlagUntilTimeout.constprop.0+0xa>
 80015a4:	2c40      	cmp	r4, #64	@ 0x40
 80015a6:	d0e8      	beq.n	800157a <UART_WaitOnFlagUntilTimeout.constprop.0+0xa>
 80015a8:	681a      	ldr	r2, [r3, #0]
 80015aa:	0712      	lsls	r2, r2, #28
 80015ac:	d5e5      	bpl.n	800157a <UART_WaitOnFlagUntilTimeout.constprop.0+0xa>
 80015ae:	2400      	movs	r4, #0
 80015b0:	9401      	str	r4, [sp, #4]
 80015b2:	681a      	ldr	r2, [r3, #0]
 80015b4:	4628      	mov	r0, r5
 80015b6:	9201      	str	r2, [sp, #4]
 80015b8:	685b      	ldr	r3, [r3, #4]
 80015ba:	9301      	str	r3, [sp, #4]
 80015bc:	9b01      	ldr	r3, [sp, #4]
 80015be:	f7ff ff6f 	bl	80014a0 <UART_EndRxTransfer>
 80015c2:	2308      	movs	r3, #8
 80015c4:	2001      	movs	r0, #1
 80015c6:	646b      	str	r3, [r5, #68]	@ 0x44
 80015c8:	f885 4040 	strb.w	r4, [r5, #64]	@ 0x40
 80015cc:	b003      	add	sp, #12
 80015ce:	bdf0      	pop	{r4, r5, r6, r7, pc}
 80015d0:	2003      	movs	r0, #3
 80015d2:	e7fb      	b.n	80015cc <UART_WaitOnFlagUntilTimeout.constprop.0+0x5c>

080015d4 <HAL_UART_Init>:
 80015d4:	b510      	push	{r4, lr}
 80015d6:	4604      	mov	r4, r0
 80015d8:	b348      	cbz	r0, 800162e <HAL_UART_Init+0x5a>
 80015da:	f890 3041 	ldrb.w	r3, [r0, #65]	@ 0x41
 80015de:	f003 02ff 	and.w	r2, r3, #255	@ 0xff
 80015e2:	b91b      	cbnz	r3, 80015ec <HAL_UART_Init+0x18>
 80015e4:	f880 2040 	strb.w	r2, [r0, #64]	@ 0x40
 80015e8:	f7ff f8dc 	bl	80007a4 <HAL_UART_MspInit>
 80015ec:	2324      	movs	r3, #36	@ 0x24
 80015ee:	6822      	ldr	r2, [r4, #0]
 80015f0:	f884 3041 	strb.w	r3, [r4, #65]	@ 0x41
 80015f4:	68d3      	ldr	r3, [r2, #12]
 80015f6:	4620      	mov	r0, r4
 80015f8:	f423 5300 	bic.w	r3, r3, #8192	@ 0x2000
 80015fc:	60d3      	str	r3, [r2, #12]
 80015fe:	f7ff ff7d 	bl	80014fc <UART_SetConfig>
 8001602:	6823      	ldr	r3, [r4, #0]
 8001604:	2000      	movs	r0, #0
 8001606:	691a      	ldr	r2, [r3, #16]
 8001608:	f422 4290 	bic.w	r2, r2, #18432	@ 0x4800
 800160c:	611a      	str	r2, [r3, #16]
 800160e:	695a      	ldr	r2, [r3, #20]
 8001610:	f022 022a 	bic.w	r2, r2, #42	@ 0x2a
 8001614:	615a      	str	r2, [r3, #20]
 8001616:	68da      	ldr	r2, [r3, #12]
 8001618:	f442 5200 	orr.w	r2, r2, #8192	@ 0x2000
 800161c:	60da      	str	r2, [r3, #12]
 800161e:	2320      	movs	r3, #32
 8001620:	6460      	str	r0, [r4, #68]	@ 0x44
 8001622:	f884 3041 	strb.w	r3, [r4, #65]	@ 0x41
 8001626:	f884 3042 	strb.w	r3, [r4, #66]	@ 0x42
 800162a:	6360      	str	r0, [r4, #52]	@ 0x34
 800162c:	bd10      	pop	{r4, pc}
 800162e:	2001      	movs	r0, #1
 8001630:	e7fc      	b.n	800162c <HAL_UART_Init+0x58>

08001632 <HAL_UART_Transmit>:
 8001632:	e92d 43f8 	stmdb	sp!, {r3, r4, r5, r6, r7, r8, r9, lr}
 8001636:	4698      	mov	r8, r3
 8001638:	f890 3041 	ldrb.w	r3, [r0, #65]	@ 0x41
 800163c:	4604      	mov	r4, r0
 800163e:	2b20      	cmp	r3, #32
 8001640:	460e      	mov	r6, r1
 8001642:	4617      	mov	r7, r2
 8001644:	d13f      	bne.n	80016c6 <HAL_UART_Transmit+0x94>
 8001646:	2900      	cmp	r1, #0
 8001648:	d03f      	beq.n	80016ca <HAL_UART_Transmit+0x98>
 800164a:	2a00      	cmp	r2, #0
 800164c:	d03d      	beq.n	80016ca <HAL_UART_Transmit+0x98>
 800164e:	2321      	movs	r3, #33	@ 0x21
 8001650:	2500      	movs	r5, #0
 8001652:	6445      	str	r5, [r0, #68]	@ 0x44
 8001654:	f880 3041 	strb.w	r3, [r0, #65]	@ 0x41
 8001658:	f7ff f9b8 	bl	80009cc <HAL_GetTick>
 800165c:	68a3      	ldr	r3, [r4, #8]
 800165e:	4681      	mov	r9, r0
 8001660:	f5b3 5f80 	cmp.w	r3, #4096	@ 0x1000
 8001664:	84a7      	strh	r7, [r4, #36]	@ 0x24
 8001666:	84e7      	strh	r7, [r4, #38]	@ 0x26
 8001668:	d103      	bne.n	8001672 <HAL_UART_Transmit+0x40>
 800166a:	6923      	ldr	r3, [r4, #16]
 800166c:	b90b      	cbnz	r3, 8001672 <HAL_UART_Transmit+0x40>
 800166e:	4635      	mov	r5, r6
 8001670:	461e      	mov	r6, r3
 8001672:	8ce3      	ldrh	r3, [r4, #38]	@ 0x26
 8001674:	b29b      	uxth	r3, r3
 8001676:	b953      	cbnz	r3, 800168e <HAL_UART_Transmit+0x5c>
 8001678:	4643      	mov	r3, r8
 800167a:	464a      	mov	r2, r9
 800167c:	2140      	movs	r1, #64	@ 0x40
 800167e:	4620      	mov	r0, r4
 8001680:	f7ff ff76 	bl	8001570 <UART_WaitOnFlagUntilTimeout.constprop.0>
 8001684:	2320      	movs	r3, #32
 8001686:	b950      	cbnz	r0, 800169e <HAL_UART_Transmit+0x6c>
 8001688:	f884 3041 	strb.w	r3, [r4, #65]	@ 0x41
 800168c:	e00a      	b.n	80016a4 <HAL_UART_Transmit+0x72>
 800168e:	4643      	mov	r3, r8
 8001690:	464a      	mov	r2, r9
 8001692:	2180      	movs	r1, #128	@ 0x80
 8001694:	4620      	mov	r0, r4
 8001696:	f7ff ff6b 	bl	8001570 <UART_WaitOnFlagUntilTimeout.constprop.0>
 800169a:	b128      	cbz	r0, 80016a8 <HAL_UART_Transmit+0x76>
 800169c:	2320      	movs	r3, #32
 800169e:	2003      	movs	r0, #3
 80016a0:	f884 3041 	strb.w	r3, [r4, #65]	@ 0x41
 80016a4:	e8bd 83f8 	ldmia.w	sp!, {r3, r4, r5, r6, r7, r8, r9, pc}
 80016a8:	6822      	ldr	r2, [r4, #0]
 80016aa:	b94e      	cbnz	r6, 80016c0 <HAL_UART_Transmit+0x8e>
 80016ac:	f835 3b02 	ldrh.w	r3, [r5], #2
 80016b0:	f3c3 0308 	ubfx	r3, r3, #0, #9
 80016b4:	6053      	str	r3, [r2, #4]
 80016b6:	8ce1      	ldrh	r1, [r4, #38]	@ 0x26
 80016b8:	3901      	subs	r1, #1
 80016ba:	b289      	uxth	r1, r1
 80016bc:	84e1      	strh	r1, [r4, #38]	@ 0x26
 80016be:	e7d8      	b.n	8001672 <HAL_UART_Transmit+0x40>
 80016c0:	f816 3b01 	ldrb.w	r3, [r6], #1
 80016c4:	e7f6      	b.n	80016b4 <HAL_UART_Transmit+0x82>
 80016c6:	2002      	movs	r0, #2
 80016c8:	e7ec      	b.n	80016a4 <HAL_UART_Transmit+0x72>
 80016ca:	2001      	movs	r0, #1
 80016cc:	e7ea      	b.n	80016a4 <HAL_UART_Transmit+0x72>

080016ce <HAL_UART_Receive>:
 80016ce:	e92d 43f8 	stmdb	sp!, {r3, r4, r5, r6, r7, r8, r9, lr}
 80016d2:	461f      	mov	r7, r3
 80016d4:	f890 3042 	ldrb.w	r3, [r0, #66]	@ 0x42
 80016d8:	4604      	mov	r4, r0
 80016da:	2b20      	cmp	r3, #32
 80016dc:	460e      	mov	r6, r1
 80016de:	4691      	mov	r9, r2
 80016e0:	d148      	bne.n	8001774 <HAL_UART_Receive+0xa6>
 80016e2:	2900      	cmp	r1, #0
 80016e4:	d048      	beq.n	8001778 <HAL_UART_Receive+0xaa>
 80016e6:	2a00      	cmp	r2, #0
 80016e8:	d046      	beq.n	8001778 <HAL_UART_Receive+0xaa>
 80016ea:	2322      	movs	r3, #34	@ 0x22
 80016ec:	2500      	movs	r5, #0
 80016ee:	6445      	str	r5, [r0, #68]	@ 0x44
 80016f0:	f880 3042 	strb.w	r3, [r0, #66]	@ 0x42
 80016f4:	6305      	str	r5, [r0, #48]	@ 0x30
 80016f6:	f7ff f969 	bl	80009cc <HAL_GetTick>
 80016fa:	68a3      	ldr	r3, [r4, #8]
 80016fc:	4680      	mov	r8, r0
 80016fe:	f5b3 5f80 	cmp.w	r3, #4096	@ 0x1000
 8001702:	f8a4 902c 	strh.w	r9, [r4, #44]	@ 0x2c
 8001706:	f8a4 902e 	strh.w	r9, [r4, #46]	@ 0x2e
 800170a:	d103      	bne.n	8001714 <HAL_UART_Receive+0x46>
 800170c:	6923      	ldr	r3, [r4, #16]
 800170e:	b90b      	cbnz	r3, 8001714 <HAL_UART_Receive+0x46>
 8001710:	4635      	mov	r5, r6
 8001712:	461e      	mov	r6, r3
 8001714:	8de0      	ldrh	r0, [r4, #46]	@ 0x2e
 8001716:	b280      	uxth	r0, r0
 8001718:	b918      	cbnz	r0, 8001722 <HAL_UART_Receive+0x54>
 800171a:	2320      	movs	r3, #32
 800171c:	f884 3042 	strb.w	r3, [r4, #66]	@ 0x42
 8001720:	e00a      	b.n	8001738 <HAL_UART_Receive+0x6a>
 8001722:	463b      	mov	r3, r7
 8001724:	4642      	mov	r2, r8
 8001726:	2120      	movs	r1, #32
 8001728:	4620      	mov	r0, r4
 800172a:	f7ff ff21 	bl	8001570 <UART_WaitOnFlagUntilTimeout.constprop.0>
 800172e:	b128      	cbz	r0, 800173c <HAL_UART_Receive+0x6e>
 8001730:	2320      	movs	r3, #32
 8001732:	2003      	movs	r0, #3
 8001734:	f884 3042 	strb.w	r3, [r4, #66]	@ 0x42
 8001738:	e8bd 83f8 	ldmia.w	sp!, {r3, r4, r5, r6, r7, r8, r9, pc}
 800173c:	6823      	ldr	r3, [r4, #0]
 800173e:	b94e      	cbnz	r6, 8001754 <HAL_UART_Receive+0x86>
 8001740:	685b      	ldr	r3, [r3, #4]
 8001742:	f3c3 0308 	ubfx	r3, r3, #0, #9
 8001746:	f825 3b02 	strh.w	r3, [r5], #2
 800174a:	8de3      	ldrh	r3, [r4, #46]	@ 0x2e
 800174c:	3b01      	subs	r3, #1
 800174e:	b29b      	uxth	r3, r3
 8001750:	85e3      	strh	r3, [r4, #46]	@ 0x2e
 8001752:	e7df      	b.n	8001714 <HAL_UART_Receive+0x46>
 8001754:	68a2      	ldr	r2, [r4, #8]
 8001756:	f5b2 5f80 	cmp.w	r2, #4096	@ 0x1000
 800175a:	d002      	beq.n	8001762 <HAL_UART_Receive+0x94>
 800175c:	b932      	cbnz	r2, 800176c <HAL_UART_Receive+0x9e>
 800175e:	6922      	ldr	r2, [r4, #16]
 8001760:	b922      	cbnz	r2, 800176c <HAL_UART_Receive+0x9e>
 8001762:	6859      	ldr	r1, [r3, #4]
 8001764:	b2c9      	uxtb	r1, r1
 8001766:	f806 1b01 	strb.w	r1, [r6], #1
 800176a:	e7ee      	b.n	800174a <HAL_UART_Receive+0x7c>
 800176c:	6859      	ldr	r1, [r3, #4]
 800176e:	f001 017f 	and.w	r1, r1, #127	@ 0x7f
 8001772:	e7f8      	b.n	8001766 <HAL_UART_Receive+0x98>
 8001774:	2002      	movs	r0, #2
 8001776:	e7df      	b.n	8001738 <HAL_UART_Receive+0x6a>
 8001778:	2001      	movs	r0, #1
 800177a:	e7dd      	b.n	8001738 <HAL_UART_Receive+0x6a>

0800177c <HAL_UART_TxCpltCallback>:
 800177c:	4770      	bx	lr

0800177e <HAL_UART_ErrorCallback>:
 800177e:	4770      	bx	lr

08001780 <UART_DMAAbortOnError>:
 8001780:	b508      	push	{r3, lr}
 8001782:	2300      	movs	r3, #0
 8001784:	6a40      	ldr	r0, [r0, #36]	@ 0x24
 8001786:	85c3      	strh	r3, [r0, #46]	@ 0x2e
 8001788:	84c3      	strh	r3, [r0, #38]	@ 0x26
 800178a:	f7ff fff8 	bl	800177e <HAL_UART_ErrorCallback>
 800178e:	bd08      	pop	{r3, pc}

08001790 <HAL_UARTEx_RxEventCallback>:
 8001790:	4770      	bx	lr

08001792 <UART_Receive_IT.isra.0>:
 8001792:	f890 3042 	ldrb.w	r3, [r0, #66]	@ 0x42
 8001796:	b507      	push	{r0, r1, r2, lr}
 8001798:	2b22      	cmp	r3, #34	@ 0x22
 800179a:	d142      	bne.n	8001822 <UART_Receive_IT.isra.0+0x90>
 800179c:	6881      	ldr	r1, [r0, #8]
 800179e:	6802      	ldr	r2, [r0, #0]
 80017a0:	f5b1 5f80 	cmp.w	r1, #4096	@ 0x1000
 80017a4:	6a83      	ldr	r3, [r0, #40]	@ 0x28
 80017a6:	d13f      	bne.n	8001828 <UART_Receive_IT.isra.0+0x96>
 80017a8:	6901      	ldr	r1, [r0, #16]
 80017aa:	2900      	cmp	r1, #0
 80017ac:	d13f      	bne.n	800182e <UART_Receive_IT.isra.0+0x9c>
 80017ae:	6852      	ldr	r2, [r2, #4]
 80017b0:	f3c2 0208 	ubfx	r2, r2, #0, #9
 80017b4:	f823 2b02 	strh.w	r2, [r3], #2
 80017b8:	6283      	str	r3, [r0, #40]	@ 0x28
 80017ba:	8dc3      	ldrh	r3, [r0, #46]	@ 0x2e
 80017bc:	3b01      	subs	r3, #1
 80017be:	b29b      	uxth	r3, r3
 80017c0:	85c3      	strh	r3, [r0, #46]	@ 0x2e
 80017c2:	2b00      	cmp	r3, #0
 80017c4:	d12d      	bne.n	8001822 <UART_Receive_IT.isra.0+0x90>
 80017c6:	6802      	ldr	r2, [r0, #0]
 80017c8:	68d1      	ldr	r1, [r2, #12]
 80017ca:	f021 0120 	bic.w	r1, r1, #32
 80017ce:	60d1      	str	r1, [r2, #12]
 80017d0:	68d1      	ldr	r1, [r2, #12]
 80017d2:	f421 7180 	bic.w	r1, r1, #256	@ 0x100
 80017d6:	60d1      	str	r1, [r2, #12]
 80017d8:	6951      	ldr	r1, [r2, #20]
 80017da:	f021 0101 	bic.w	r1, r1, #1
 80017de:	6151      	str	r1, [r2, #20]
 80017e0:	2220      	movs	r2, #32
 80017e2:	f880 2042 	strb.w	r2, [r0, #66]	@ 0x42
 80017e6:	6343      	str	r3, [r0, #52]	@ 0x34
 80017e8:	6b02      	ldr	r2, [r0, #48]	@ 0x30
 80017ea:	2a01      	cmp	r2, #1
 80017ec:	6802      	ldr	r2, [r0, #0]
 80017ee:	d128      	bne.n	8001842 <UART_Receive_IT.isra.0+0xb0>
 80017f0:	6303      	str	r3, [r0, #48]	@ 0x30
 80017f2:	f102 030c 	add.w	r3, r2, #12
 80017f6:	e853 3f00 	ldrex	r3, [r3]
 80017fa:	f023 0310 	bic.w	r3, r3, #16
 80017fe:	f102 0c0c 	add.w	ip, r2, #12
 8001802:	e84c 3100 	strex	r1, r3, [ip]
 8001806:	2900      	cmp	r1, #0
 8001808:	d1f3      	bne.n	80017f2 <UART_Receive_IT.isra.0+0x60>
 800180a:	6813      	ldr	r3, [r2, #0]
 800180c:	06db      	lsls	r3, r3, #27
 800180e:	d505      	bpl.n	800181c <UART_Receive_IT.isra.0+0x8a>
 8001810:	9101      	str	r1, [sp, #4]
 8001812:	6813      	ldr	r3, [r2, #0]
 8001814:	9301      	str	r3, [sp, #4]
 8001816:	6853      	ldr	r3, [r2, #4]
 8001818:	9301      	str	r3, [sp, #4]
 800181a:	9b01      	ldr	r3, [sp, #4]
 800181c:	8d81      	ldrh	r1, [r0, #44]	@ 0x2c
 800181e:	f7ff ffb7 	bl	8001790 <HAL_UARTEx_RxEventCallback>
 8001822:	b003      	add	sp, #12
 8001824:	f85d fb04 	ldr.w	pc, [sp], #4
 8001828:	b939      	cbnz	r1, 800183a <UART_Receive_IT.isra.0+0xa8>
 800182a:	6901      	ldr	r1, [r0, #16]
 800182c:	b929      	cbnz	r1, 800183a <UART_Receive_IT.isra.0+0xa8>
 800182e:	6852      	ldr	r2, [r2, #4]
 8001830:	b2d2      	uxtb	r2, r2
 8001832:	701a      	strb	r2, [r3, #0]
 8001834:	6a83      	ldr	r3, [r0, #40]	@ 0x28
 8001836:	3301      	adds	r3, #1
 8001838:	e7be      	b.n	80017b8 <UART_Receive_IT.isra.0+0x26>
 800183a:	6852      	ldr	r2, [r2, #4]
 800183c:	f002 027f 	and.w	r2, r2, #127	@ 0x7f
 8001840:	e7f7      	b.n	8001832 <UART_Receive_IT.isra.0+0xa0>
 8001842:	f7fe feab 	bl	800059c <HAL_UART_RxCpltCallback>
 8001846:	e7ec      	b.n	8001822 <UART_Receive_IT.isra.0+0x90>

08001848 <HAL_UART_IRQHandler>:
 8001848:	6803      	ldr	r3, [r0, #0]
 800184a:	b573      	push	{r0, r1, r4, r5, r6, lr}
 800184c:	681a      	ldr	r2, [r3, #0]
 800184e:	4604      	mov	r4, r0
 8001850:	0716      	lsls	r6, r2, #28
 8001852:	68d9      	ldr	r1, [r3, #12]
 8001854:	695d      	ldr	r5, [r3, #20]
 8001856:	d108      	bne.n	800186a <HAL_UART_IRQHandler+0x22>
 8001858:	0696      	lsls	r6, r2, #26
 800185a:	d568      	bpl.n	800192e <HAL_UART_IRQHandler+0xe6>
 800185c:	068d      	lsls	r5, r1, #26
 800185e:	d566      	bpl.n	800192e <HAL_UART_IRQHandler+0xe6>
 8001860:	b002      	add	sp, #8
 8001862:	e8bd 4070 	ldmia.w	sp!, {r4, r5, r6, lr}
 8001866:	f7ff bf94 	b.w	8001792 <UART_Receive_IT.isra.0>
 800186a:	f005 0001 	and.w	r0, r5, #1
 800186e:	f401 7590 	and.w	r5, r1, #288	@ 0x120
 8001872:	4305      	orrs	r5, r0
 8001874:	d05b      	beq.n	800192e <HAL_UART_IRQHandler+0xe6>
 8001876:	07d6      	lsls	r6, r2, #31
 8001878:	d505      	bpl.n	8001886 <HAL_UART_IRQHandler+0x3e>
 800187a:	05cd      	lsls	r5, r1, #23
 800187c:	bf42      	ittt	mi
 800187e:	6c63      	ldrmi	r3, [r4, #68]	@ 0x44
 8001880:	f043 0301 	orrmi.w	r3, r3, #1
 8001884:	6463      	strmi	r3, [r4, #68]	@ 0x44
 8001886:	0753      	lsls	r3, r2, #29
 8001888:	d504      	bpl.n	8001894 <HAL_UART_IRQHandler+0x4c>
 800188a:	b118      	cbz	r0, 8001894 <HAL_UART_IRQHandler+0x4c>
 800188c:	6c63      	ldr	r3, [r4, #68]	@ 0x44
 800188e:	f043 0302 	orr.w	r3, r3, #2
 8001892:	6463      	str	r3, [r4, #68]	@ 0x44
 8001894:	0796      	lsls	r6, r2, #30
 8001896:	d504      	bpl.n	80018a2 <HAL_UART_IRQHandler+0x5a>
 8001898:	b118      	cbz	r0, 80018a2 <HAL_UART_IRQHandler+0x5a>
 800189a:	6c63      	ldr	r3, [r4, #68]	@ 0x44
 800189c:	f043 0304 	orr.w	r3, r3, #4
 80018a0:	6463      	str	r3, [r4, #68]	@ 0x44
 80018a2:	0715      	lsls	r5, r2, #28
 80018a4:	d507      	bpl.n	80018b6 <HAL_UART_IRQHandler+0x6e>
 80018a6:	f001 0320 	and.w	r3, r1, #32
 80018aa:	4303      	orrs	r3, r0
 80018ac:	bf1e      	ittt	ne
 80018ae:	6c63      	ldrne	r3, [r4, #68]	@ 0x44
 80018b0:	f043 0308 	orrne.w	r3, r3, #8
 80018b4:	6463      	strne	r3, [r4, #68]	@ 0x44
 80018b6:	6c63      	ldr	r3, [r4, #68]	@ 0x44
 80018b8:	2b00      	cmp	r3, #0
 80018ba:	d032      	beq.n	8001922 <HAL_UART_IRQHandler+0xda>
 80018bc:	0692      	lsls	r2, r2, #26
 80018be:	d504      	bpl.n	80018ca <HAL_UART_IRQHandler+0x82>
 80018c0:	068b      	lsls	r3, r1, #26
 80018c2:	d502      	bpl.n	80018ca <HAL_UART_IRQHandler+0x82>
 80018c4:	4620      	mov	r0, r4
 80018c6:	f7ff ff64 	bl	8001792 <UART_Receive_IT.isra.0>
 80018ca:	6826      	ldr	r6, [r4, #0]
 80018cc:	4620      	mov	r0, r4
 80018ce:	6973      	ldr	r3, [r6, #20]
 80018d0:	6c62      	ldr	r2, [r4, #68]	@ 0x44
 80018d2:	f003 0340 	and.w	r3, r3, #64	@ 0x40
 80018d6:	f002 0208 	and.w	r2, r2, #8
 80018da:	ea53 0502 	orrs.w	r5, r3, r2
 80018de:	d022      	beq.n	8001926 <HAL_UART_IRQHandler+0xde>
 80018e0:	f7ff fdde 	bl	80014a0 <UART_EndRxTransfer>
 80018e4:	6973      	ldr	r3, [r6, #20]
 80018e6:	065e      	lsls	r6, r3, #25
 80018e8:	d518      	bpl.n	800191c <HAL_UART_IRQHandler+0xd4>
 80018ea:	6822      	ldr	r2, [r4, #0]
 80018ec:	f102 0314 	add.w	r3, r2, #20
 80018f0:	e853 3f00 	ldrex	r3, [r3]
 80018f4:	f023 0340 	bic.w	r3, r3, #64	@ 0x40
 80018f8:	3214      	adds	r2, #20
 80018fa:	e842 3100 	strex	r1, r3, [r2]
 80018fe:	2900      	cmp	r1, #0
 8001900:	d1f3      	bne.n	80018ea <HAL_UART_IRQHandler+0xa2>
 8001902:	6be0      	ldr	r0, [r4, #60]	@ 0x3c
 8001904:	b150      	cbz	r0, 800191c <HAL_UART_IRQHandler+0xd4>
 8001906:	4b74      	ldr	r3, [pc, #464]	@ (8001ad8 <HAL_UART_IRQHandler+0x290>)
 8001908:	6343      	str	r3, [r0, #52]	@ 0x34
 800190a:	f7ff f8fb 	bl	8000b04 <HAL_DMA_Abort_IT>
 800190e:	b140      	cbz	r0, 8001922 <HAL_UART_IRQHandler+0xda>
 8001910:	6be0      	ldr	r0, [r4, #60]	@ 0x3c
 8001912:	6b43      	ldr	r3, [r0, #52]	@ 0x34
 8001914:	b002      	add	sp, #8
 8001916:	e8bd 4070 	ldmia.w	sp!, {r4, r5, r6, lr}
 800191a:	4718      	bx	r3
 800191c:	4620      	mov	r0, r4
 800191e:	f7ff ff2e 	bl	800177e <HAL_UART_ErrorCallback>
 8001922:	b002      	add	sp, #8
 8001924:	bd70      	pop	{r4, r5, r6, pc}
 8001926:	f7ff ff2a 	bl	800177e <HAL_UART_ErrorCallback>
 800192a:	6465      	str	r5, [r4, #68]	@ 0x44
 800192c:	e7f9      	b.n	8001922 <HAL_UART_IRQHandler+0xda>
 800192e:	6b20      	ldr	r0, [r4, #48]	@ 0x30
 8001930:	2801      	cmp	r0, #1
 8001932:	f040 8094 	bne.w	8001a5e <HAL_UART_IRQHandler+0x216>
 8001936:	06d5      	lsls	r5, r2, #27
 8001938:	f140 8091 	bpl.w	8001a5e <HAL_UART_IRQHandler+0x216>
 800193c:	06c8      	lsls	r0, r1, #27
 800193e:	f140 808e 	bpl.w	8001a5e <HAL_UART_IRQHandler+0x216>
 8001942:	2200      	movs	r2, #0
 8001944:	9201      	str	r2, [sp, #4]
 8001946:	681a      	ldr	r2, [r3, #0]
 8001948:	9201      	str	r2, [sp, #4]
 800194a:	685a      	ldr	r2, [r3, #4]
 800194c:	9201      	str	r2, [sp, #4]
 800194e:	9a01      	ldr	r2, [sp, #4]
 8001950:	695a      	ldr	r2, [r3, #20]
 8001952:	0652      	lsls	r2, r2, #25
 8001954:	d54d      	bpl.n	80019f2 <HAL_UART_IRQHandler+0x1aa>
 8001956:	6be1      	ldr	r1, [r4, #60]	@ 0x3c
 8001958:	680a      	ldr	r2, [r1, #0]
 800195a:	6852      	ldr	r2, [r2, #4]
 800195c:	b292      	uxth	r2, r2
 800195e:	2a00      	cmp	r2, #0
 8001960:	d0df      	beq.n	8001922 <HAL_UART_IRQHandler+0xda>
 8001962:	8da0      	ldrh	r0, [r4, #44]	@ 0x2c
 8001964:	4290      	cmp	r0, r2
 8001966:	d9dc      	bls.n	8001922 <HAL_UART_IRQHandler+0xda>
 8001968:	85e2      	strh	r2, [r4, #46]	@ 0x2e
 800196a:	698a      	ldr	r2, [r1, #24]
 800196c:	2a20      	cmp	r2, #32
 800196e:	d036      	beq.n	80019de <HAL_UART_IRQHandler+0x196>
 8001970:	f103 020c 	add.w	r2, r3, #12
 8001974:	e852 2f00 	ldrex	r2, [r2]
 8001978:	f422 7280 	bic.w	r2, r2, #256	@ 0x100
 800197c:	f103 000c 	add.w	r0, r3, #12
 8001980:	e840 2100 	strex	r1, r2, [r0]
 8001984:	2900      	cmp	r1, #0
 8001986:	d1f3      	bne.n	8001970 <HAL_UART_IRQHandler+0x128>
 8001988:	f103 0214 	add.w	r2, r3, #20
 800198c:	e852 2f00 	ldrex	r2, [r2]
 8001990:	f022 0201 	bic.w	r2, r2, #1
 8001994:	f103 0014 	add.w	r0, r3, #20
 8001998:	e840 2100 	strex	r1, r2, [r0]
 800199c:	2900      	cmp	r1, #0
 800199e:	d1f3      	bne.n	8001988 <HAL_UART_IRQHandler+0x140>
 80019a0:	f103 0214 	add.w	r2, r3, #20
 80019a4:	e852 2f00 	ldrex	r2, [r2]
 80019a8:	f022 0240 	bic.w	r2, r2, #64	@ 0x40
 80019ac:	f103 0014 	add.w	r0, r3, #20
 80019b0:	e840 2100 	strex	r1, r2, [r0]
 80019b4:	2900      	cmp	r1, #0
 80019b6:	d1f3      	bne.n	80019a0 <HAL_UART_IRQHandler+0x158>
 80019b8:	2220      	movs	r2, #32
 80019ba:	f884 2042 	strb.w	r2, [r4, #66]	@ 0x42
 80019be:	6321      	str	r1, [r4, #48]	@ 0x30
 80019c0:	f103 020c 	add.w	r2, r3, #12
 80019c4:	e852 2f00 	ldrex	r2, [r2]
 80019c8:	f022 0210 	bic.w	r2, r2, #16
 80019cc:	f103 000c 	add.w	r0, r3, #12
 80019d0:	e840 2100 	strex	r1, r2, [r0]
 80019d4:	2900      	cmp	r1, #0
 80019d6:	d1f3      	bne.n	80019c0 <HAL_UART_IRQHandler+0x178>
 80019d8:	6be0      	ldr	r0, [r4, #60]	@ 0x3c
 80019da:	f7ff f873 	bl	8000ac4 <HAL_DMA_Abort>
 80019de:	2302      	movs	r3, #2
 80019e0:	6363      	str	r3, [r4, #52]	@ 0x34
 80019e2:	8de3      	ldrh	r3, [r4, #46]	@ 0x2e
 80019e4:	8da1      	ldrh	r1, [r4, #44]	@ 0x2c
 80019e6:	1ac9      	subs	r1, r1, r3
 80019e8:	b289      	uxth	r1, r1
 80019ea:	4620      	mov	r0, r4
 80019ec:	f7ff fed0 	bl	8001790 <HAL_UARTEx_RxEventCallback>
 80019f0:	e797      	b.n	8001922 <HAL_UART_IRQHandler+0xda>
 80019f2:	8de2      	ldrh	r2, [r4, #46]	@ 0x2e
 80019f4:	8de0      	ldrh	r0, [r4, #46]	@ 0x2e
 80019f6:	8da1      	ldrh	r1, [r4, #44]	@ 0x2c
 80019f8:	b280      	uxth	r0, r0
 80019fa:	b292      	uxth	r2, r2
 80019fc:	2800      	cmp	r0, #0
 80019fe:	d090      	beq.n	8001922 <HAL_UART_IRQHandler+0xda>
 8001a00:	1a89      	subs	r1, r1, r2
 8001a02:	b289      	uxth	r1, r1
 8001a04:	2900      	cmp	r1, #0
 8001a06:	d08c      	beq.n	8001922 <HAL_UART_IRQHandler+0xda>
 8001a08:	f103 020c 	add.w	r2, r3, #12
 8001a0c:	e852 2f00 	ldrex	r2, [r2]
 8001a10:	f422 7290 	bic.w	r2, r2, #288	@ 0x120
 8001a14:	f103 050c 	add.w	r5, r3, #12
 8001a18:	e845 2000 	strex	r0, r2, [r5]
 8001a1c:	2800      	cmp	r0, #0
 8001a1e:	d1f3      	bne.n	8001a08 <HAL_UART_IRQHandler+0x1c0>
 8001a20:	f103 0214 	add.w	r2, r3, #20
 8001a24:	e852 2f00 	ldrex	r2, [r2]
 8001a28:	f022 0201 	bic.w	r2, r2, #1
 8001a2c:	f103 0514 	add.w	r5, r3, #20
 8001a30:	e845 2000 	strex	r0, r2, [r5]
 8001a34:	2800      	cmp	r0, #0
 8001a36:	d1f3      	bne.n	8001a20 <HAL_UART_IRQHandler+0x1d8>
 8001a38:	2220      	movs	r2, #32
 8001a3a:	f884 2042 	strb.w	r2, [r4, #66]	@ 0x42
 8001a3e:	6320      	str	r0, [r4, #48]	@ 0x30
 8001a40:	f103 020c 	add.w	r2, r3, #12
 8001a44:	e852 2f00 	ldrex	r2, [r2]
 8001a48:	f022 0210 	bic.w	r2, r2, #16
 8001a4c:	f103 050c 	add.w	r5, r3, #12
 8001a50:	e845 2000 	strex	r0, r2, [r5]
 8001a54:	2800      	cmp	r0, #0
 8001a56:	d1f3      	bne.n	8001a40 <HAL_UART_IRQHandler+0x1f8>
 8001a58:	2302      	movs	r3, #2
 8001a5a:	6363      	str	r3, [r4, #52]	@ 0x34
 8001a5c:	e7c5      	b.n	80019ea <HAL_UART_IRQHandler+0x1a2>
 8001a5e:	0616      	lsls	r6, r2, #24
 8001a60:	d528      	bpl.n	8001ab4 <HAL_UART_IRQHandler+0x26c>
 8001a62:	060d      	lsls	r5, r1, #24
 8001a64:	d526      	bpl.n	8001ab4 <HAL_UART_IRQHandler+0x26c>
 8001a66:	f894 2041 	ldrb.w	r2, [r4, #65]	@ 0x41
 8001a6a:	2a21      	cmp	r2, #33	@ 0x21
 8001a6c:	f47f af59 	bne.w	8001922 <HAL_UART_IRQHandler+0xda>
 8001a70:	68a1      	ldr	r1, [r4, #8]
 8001a72:	6a22      	ldr	r2, [r4, #32]
 8001a74:	f5b1 5f80 	cmp.w	r1, #4096	@ 0x1000
 8001a78:	d117      	bne.n	8001aaa <HAL_UART_IRQHandler+0x262>
 8001a7a:	6921      	ldr	r1, [r4, #16]
 8001a7c:	b9a9      	cbnz	r1, 8001aaa <HAL_UART_IRQHandler+0x262>
 8001a7e:	f832 1b02 	ldrh.w	r1, [r2], #2
 8001a82:	f3c1 0108 	ubfx	r1, r1, #0, #9
 8001a86:	6059      	str	r1, [r3, #4]
 8001a88:	6222      	str	r2, [r4, #32]
 8001a8a:	8ce2      	ldrh	r2, [r4, #38]	@ 0x26
 8001a8c:	3a01      	subs	r2, #1
 8001a8e:	b292      	uxth	r2, r2
 8001a90:	84e2      	strh	r2, [r4, #38]	@ 0x26
 8001a92:	2a00      	cmp	r2, #0
 8001a94:	f47f af45 	bne.w	8001922 <HAL_UART_IRQHandler+0xda>
 8001a98:	68da      	ldr	r2, [r3, #12]
 8001a9a:	f022 0280 	bic.w	r2, r2, #128	@ 0x80
 8001a9e:	60da      	str	r2, [r3, #12]
 8001aa0:	68da      	ldr	r2, [r3, #12]
 8001aa2:	f042 0240 	orr.w	r2, r2, #64	@ 0x40
 8001aa6:	60da      	str	r2, [r3, #12]
 8001aa8:	e73b      	b.n	8001922 <HAL_UART_IRQHandler+0xda>
 8001aaa:	1c51      	adds	r1, r2, #1
 8001aac:	6221      	str	r1, [r4, #32]
 8001aae:	7812      	ldrb	r2, [r2, #0]
 8001ab0:	605a      	str	r2, [r3, #4]
 8001ab2:	e7ea      	b.n	8001a8a <HAL_UART_IRQHandler+0x242>
 8001ab4:	0650      	lsls	r0, r2, #25
 8001ab6:	f57f af34 	bpl.w	8001922 <HAL_UART_IRQHandler+0xda>
 8001aba:	064a      	lsls	r2, r1, #25
 8001abc:	f57f af31 	bpl.w	8001922 <HAL_UART_IRQHandler+0xda>
 8001ac0:	68da      	ldr	r2, [r3, #12]
 8001ac2:	4620      	mov	r0, r4
 8001ac4:	f022 0240 	bic.w	r2, r2, #64	@ 0x40
 8001ac8:	60da      	str	r2, [r3, #12]
 8001aca:	2320      	movs	r3, #32
 8001acc:	f884 3041 	strb.w	r3, [r4, #65]	@ 0x41
 8001ad0:	f7ff fe54 	bl	800177c <HAL_UART_TxCpltCallback>
 8001ad4:	e725      	b.n	8001922 <HAL_UART_IRQHandler+0xda>
 8001ad6:	bf00      	nop
 8001ad8:	08001781 	.word	0x08001781

08001adc <HAL_UART_GetState>:
 8001adc:	f890 2041 	ldrb.w	r2, [r0, #65]	@ 0x41
 8001ae0:	f890 0042 	ldrb.w	r0, [r0, #66]	@ 0x42
 8001ae4:	4310      	orrs	r0, r2
 8001ae6:	4770      	bx	lr

08001ae8 <siprintf>:
 8001ae8:	b40e      	push	{r1, r2, r3}
 8001aea:	f06f 4100 	mvn.w	r1, #2147483648	@ 0x80000000
 8001aee:	b510      	push	{r4, lr}
 8001af0:	2400      	movs	r4, #0
 8001af2:	b09d      	sub	sp, #116	@ 0x74
 8001af4:	ab1f      	add	r3, sp, #124	@ 0x7c
 8001af6:	9002      	str	r0, [sp, #8]
 8001af8:	9006      	str	r0, [sp, #24]
 8001afa:	9107      	str	r1, [sp, #28]
 8001afc:	9104      	str	r1, [sp, #16]
 8001afe:	4809      	ldr	r0, [pc, #36]	@ (8001b24 <siprintf+0x3c>)
 8001b00:	4909      	ldr	r1, [pc, #36]	@ (8001b28 <siprintf+0x40>)
 8001b02:	f853 2b04 	ldr.w	r2, [r3], #4
 8001b06:	9105      	str	r1, [sp, #20]
 8001b08:	6800      	ldr	r0, [r0, #0]
 8001b0a:	a902      	add	r1, sp, #8
 8001b0c:	9301      	str	r3, [sp, #4]
 8001b0e:	941b      	str	r4, [sp, #108]	@ 0x6c
 8001b10:	f000 f992 	bl	8001e38 <_svfiprintf_r>
 8001b14:	9b02      	ldr	r3, [sp, #8]
 8001b16:	701c      	strb	r4, [r3, #0]
 8001b18:	b01d      	add	sp, #116	@ 0x74
 8001b1a:	e8bd 4010 	ldmia.w	sp!, {r4, lr}
 8001b1e:	b003      	add	sp, #12
 8001b20:	4770      	bx	lr
 8001b22:	bf00      	nop
 8001b24:	20000060 	.word	0x20000060
 8001b28:	ffff0208 	.word	0xffff0208

08001b2c <memset>:
 8001b2c:	4603      	mov	r3, r0
 8001b2e:	4402      	add	r2, r0
 8001b30:	4293      	cmp	r3, r2
 8001b32:	d100      	bne.n	8001b36 <memset+0xa>
 8001b34:	4770      	bx	lr
 8001b36:	f803 1b01 	strb.w	r1, [r3], #1
 8001b3a:	e7f9      	b.n	8001b30 <memset+0x4>

08001b3c <__errno>:
 8001b3c:	4b01      	ldr	r3, [pc, #4]	@ (8001b44 <__errno+0x8>)
 8001b3e:	6818      	ldr	r0, [r3, #0]
 8001b40:	4770      	bx	lr
 8001b42:	bf00      	nop
 8001b44:	20000060 	.word	0x20000060

08001b48 <__libc_init_array>:
 8001b48:	b570      	push	{r4, r5, r6, lr}
 8001b4a:	2600      	movs	r6, #0
 8001b4c:	4d0c      	ldr	r5, [pc, #48]	@ (8001b80 <__libc_init_array+0x38>)
 8001b4e:	4c0d      	ldr	r4, [pc, #52]	@ (8001b84 <__libc_init_array+0x3c>)
 8001b50:	1b64      	subs	r4, r4, r5
 8001b52:	10a4      	asrs	r4, r4, #2
 8001b54:	42a6      	cmp	r6, r4
 8001b56:	d109      	bne.n	8001b6c <__libc_init_array+0x24>
 8001b58:	f000 fc76 	bl	8002448 <_init>
 8001b5c:	2600      	movs	r6, #0
 8001b5e:	4d0a      	ldr	r5, [pc, #40]	@ (8001b88 <__libc_init_array+0x40>)
 8001b60:	4c0a      	ldr	r4, [pc, #40]	@ (8001b8c <__libc_init_array+0x44>)
 8001b62:	1b64      	subs	r4, r4, r5
 8001b64:	10a4      	asrs	r4, r4, #2
 8001b66:	42a6      	cmp	r6, r4
 8001b68:	d105      	bne.n	8001b76 <__libc_init_array+0x2e>
 8001b6a:	bd70      	pop	{r4, r5, r6, pc}
 8001b6c:	f855 3b04 	ldr.w	r3, [r5], #4
 8001b70:	4798      	blx	r3
 8001b72:	3601      	adds	r6, #1
 8001b74:	e7ee      	b.n	8001b54 <__libc_init_array+0xc>
 8001b76:	f855 3b04 	ldr.w	r3, [r5], #4
 8001b7a:	4798      	blx	r3
 8001b7c:	3601      	adds	r6, #1
 8001b7e:	e7f2      	b.n	8001b66 <__libc_init_array+0x1e>
 8001b80:	080026d4 	.word	0x080026d4
 8001b84:	080026d4 	.word	0x080026d4
 8001b88:	080026d4 	.word	0x080026d4
 8001b8c:	080026d8 	.word	0x080026d8

08001b90 <__retarget_lock_acquire_recursive>:
 8001b90:	4770      	bx	lr

08001b92 <__retarget_lock_release_recursive>:
 8001b92:	4770      	bx	lr

08001b94 <_free_r>:
 8001b94:	b538      	push	{r3, r4, r5, lr}
 8001b96:	4605      	mov	r5, r0
 8001b98:	2900      	cmp	r1, #0
 8001b9a:	d040      	beq.n	8001c1e <_free_r+0x8a>
 8001b9c:	f851 3c04 	ldr.w	r3, [r1, #-4]
 8001ba0:	1f0c      	subs	r4, r1, #4
 8001ba2:	2b00      	cmp	r3, #0
 8001ba4:	bfb8      	it	lt
 8001ba6:	18e4      	addlt	r4, r4, r3
 8001ba8:	f000 f8de 	bl	8001d68 <__malloc_lock>
 8001bac:	4a1c      	ldr	r2, [pc, #112]	@ (8001c20 <_free_r+0x8c>)
 8001bae:	6813      	ldr	r3, [r2, #0]
 8001bb0:	b933      	cbnz	r3, 8001bc0 <_free_r+0x2c>
 8001bb2:	6063      	str	r3, [r4, #4]
 8001bb4:	6014      	str	r4, [r2, #0]
 8001bb6:	4628      	mov	r0, r5
 8001bb8:	e8bd 4038 	ldmia.w	sp!, {r3, r4, r5, lr}
 8001bbc:	f000 b8da 	b.w	8001d74 <__malloc_unlock>
 8001bc0:	42a3      	cmp	r3, r4
 8001bc2:	d908      	bls.n	8001bd6 <_free_r+0x42>
 8001bc4:	6820      	ldr	r0, [r4, #0]
 8001bc6:	1821      	adds	r1, r4, r0
 8001bc8:	428b      	cmp	r3, r1
 8001bca:	bf01      	itttt	eq
 8001bcc:	6819      	ldreq	r1, [r3, #0]
 8001bce:	685b      	ldreq	r3, [r3, #4]
 8001bd0:	1809      	addeq	r1, r1, r0
 8001bd2:	6021      	streq	r1, [r4, #0]
 8001bd4:	e7ed      	b.n	8001bb2 <_free_r+0x1e>
 8001bd6:	461a      	mov	r2, r3
 8001bd8:	685b      	ldr	r3, [r3, #4]
 8001bda:	b10b      	cbz	r3, 8001be0 <_free_r+0x4c>
 8001bdc:	42a3      	cmp	r3, r4
 8001bde:	d9fa      	bls.n	8001bd6 <_free_r+0x42>
 8001be0:	6811      	ldr	r1, [r2, #0]
 8001be2:	1850      	adds	r0, r2, r1
 8001be4:	42a0      	cmp	r0, r4
 8001be6:	d10b      	bne.n	8001c00 <_free_r+0x6c>
 8001be8:	6820      	ldr	r0, [r4, #0]
 8001bea:	4401      	add	r1, r0
 8001bec:	1850      	adds	r0, r2, r1
 8001bee:	4283      	cmp	r3, r0
 8001bf0:	6011      	str	r1, [r2, #0]
 8001bf2:	d1e0      	bne.n	8001bb6 <_free_r+0x22>
 8001bf4:	6818      	ldr	r0, [r3, #0]
 8001bf6:	685b      	ldr	r3, [r3, #4]
 8001bf8:	4408      	add	r0, r1
 8001bfa:	6010      	str	r0, [r2, #0]
 8001bfc:	6053      	str	r3, [r2, #4]
 8001bfe:	e7da      	b.n	8001bb6 <_free_r+0x22>
 8001c00:	d902      	bls.n	8001c08 <_free_r+0x74>
 8001c02:	230c      	movs	r3, #12
 8001c04:	602b      	str	r3, [r5, #0]
 8001c06:	e7d6      	b.n	8001bb6 <_free_r+0x22>
 8001c08:	6820      	ldr	r0, [r4, #0]
 8001c0a:	1821      	adds	r1, r4, r0
 8001c0c:	428b      	cmp	r3, r1
 8001c0e:	bf01      	itttt	eq
 8001c10:	6819      	ldreq	r1, [r3, #0]
 8001c12:	685b      	ldreq	r3, [r3, #4]
 8001c14:	1809      	addeq	r1, r1, r0
 8001c16:	6021      	streq	r1, [r4, #0]
 8001c18:	6063      	str	r3, [r4, #4]
 8001c1a:	6054      	str	r4, [r2, #4]
 8001c1c:	e7cb      	b.n	8001bb6 <_free_r+0x22>
 8001c1e:	bd38      	pop	{r3, r4, r5, pc}
 8001c20:	2000034c 	.word	0x2000034c

08001c24 <sbrk_aligned>:
 8001c24:	b570      	push	{r4, r5, r6, lr}
 8001c26:	4e0f      	ldr	r6, [pc, #60]	@ (8001c64 <sbrk_aligned+0x40>)
 8001c28:	460c      	mov	r4, r1
 8001c2a:	6831      	ldr	r1, [r6, #0]
 8001c2c:	4605      	mov	r5, r0
 8001c2e:	b911      	cbnz	r1, 8001c36 <sbrk_aligned+0x12>
 8001c30:	f000 fba8 	bl	8002384 <_sbrk_r>
 8001c34:	6030      	str	r0, [r6, #0]
 8001c36:	4621      	mov	r1, r4
 8001c38:	4628      	mov	r0, r5
 8001c3a:	f000 fba3 	bl	8002384 <_sbrk_r>
 8001c3e:	1c43      	adds	r3, r0, #1
 8001c40:	d103      	bne.n	8001c4a <sbrk_aligned+0x26>
 8001c42:	f04f 34ff 	mov.w	r4, #4294967295
 8001c46:	4620      	mov	r0, r4
 8001c48:	bd70      	pop	{r4, r5, r6, pc}
 8001c4a:	1cc4      	adds	r4, r0, #3
 8001c4c:	f024 0403 	bic.w	r4, r4, #3
 8001c50:	42a0      	cmp	r0, r4
 8001c52:	d0f8      	beq.n	8001c46 <sbrk_aligned+0x22>
 8001c54:	1a21      	subs	r1, r4, r0
 8001c56:	4628      	mov	r0, r5
 8001c58:	f000 fb94 	bl	8002384 <_sbrk_r>
 8001c5c:	3001      	adds	r0, #1
 8001c5e:	d1f2      	bne.n	8001c46 <sbrk_aligned+0x22>
 8001c60:	e7ef      	b.n	8001c42 <sbrk_aligned+0x1e>
 8001c62:	bf00      	nop
 8001c64:	20000348 	.word	0x20000348

08001c68 <_malloc_r>:
 8001c68:	e92d 43f8 	stmdb	sp!, {r3, r4, r5, r6, r7, r8, r9, lr}
 8001c6c:	1ccd      	adds	r5, r1, #3
 8001c6e:	f025 0503 	bic.w	r5, r5, #3
 8001c72:	3508      	adds	r5, #8
 8001c74:	2d0c      	cmp	r5, #12
 8001c76:	bf38      	it	cc
 8001c78:	250c      	movcc	r5, #12
 8001c7a:	2d00      	cmp	r5, #0
 8001c7c:	4606      	mov	r6, r0
 8001c7e:	db01      	blt.n	8001c84 <_malloc_r+0x1c>
 8001c80:	42a9      	cmp	r1, r5
 8001c82:	d904      	bls.n	8001c8e <_malloc_r+0x26>
 8001c84:	230c      	movs	r3, #12
 8001c86:	6033      	str	r3, [r6, #0]
 8001c88:	2000      	movs	r0, #0
 8001c8a:	e8bd 83f8 	ldmia.w	sp!, {r3, r4, r5, r6, r7, r8, r9, pc}
 8001c8e:	f8df 80d4 	ldr.w	r8, [pc, #212]	@ 8001d64 <_malloc_r+0xfc>
 8001c92:	f000 f869 	bl	8001d68 <__malloc_lock>
 8001c96:	f8d8 3000 	ldr.w	r3, [r8]
 8001c9a:	461c      	mov	r4, r3
 8001c9c:	bb44      	cbnz	r4, 8001cf0 <_malloc_r+0x88>
 8001c9e:	4629      	mov	r1, r5
 8001ca0:	4630      	mov	r0, r6
 8001ca2:	f7ff ffbf 	bl	8001c24 <sbrk_aligned>
 8001ca6:	1c43      	adds	r3, r0, #1
 8001ca8:	4604      	mov	r4, r0
 8001caa:	d158      	bne.n	8001d5e <_malloc_r+0xf6>
 8001cac:	f8d8 4000 	ldr.w	r4, [r8]
 8001cb0:	4627      	mov	r7, r4
 8001cb2:	2f00      	cmp	r7, #0
 8001cb4:	d143      	bne.n	8001d3e <_malloc_r+0xd6>
 8001cb6:	2c00      	cmp	r4, #0
 8001cb8:	d04b      	beq.n	8001d52 <_malloc_r+0xea>
 8001cba:	6823      	ldr	r3, [r4, #0]
 8001cbc:	4639      	mov	r1, r7
 8001cbe:	4630      	mov	r0, r6
 8001cc0:	eb04 0903 	add.w	r9, r4, r3
 8001cc4:	f000 fb5e 	bl	8002384 <_sbrk_r>
 8001cc8:	4581      	cmp	r9, r0
 8001cca:	d142      	bne.n	8001d52 <_malloc_r+0xea>
 8001ccc:	6821      	ldr	r1, [r4, #0]
 8001cce:	4630      	mov	r0, r6
 8001cd0:	1a6d      	subs	r5, r5, r1
 8001cd2:	4629      	mov	r1, r5
 8001cd4:	f7ff ffa6 	bl	8001c24 <sbrk_aligned>
 8001cd8:	3001      	adds	r0, #1
 8001cda:	d03a      	beq.n	8001d52 <_malloc_r+0xea>
 8001cdc:	6823      	ldr	r3, [r4, #0]
 8001cde:	442b      	add	r3, r5
 8001ce0:	6023      	str	r3, [r4, #0]
 8001ce2:	f8d8 3000 	ldr.w	r3, [r8]
 8001ce6:	685a      	ldr	r2, [r3, #4]
 8001ce8:	bb62      	cbnz	r2, 8001d44 <_malloc_r+0xdc>
 8001cea:	f8c8 7000 	str.w	r7, [r8]
 8001cee:	e00f      	b.n	8001d10 <_malloc_r+0xa8>
 8001cf0:	6822      	ldr	r2, [r4, #0]
 8001cf2:	1b52      	subs	r2, r2, r5
 8001cf4:	d420      	bmi.n	8001d38 <_malloc_r+0xd0>
 8001cf6:	2a0b      	cmp	r2, #11
 8001cf8:	d917      	bls.n	8001d2a <_malloc_r+0xc2>
 8001cfa:	1961      	adds	r1, r4, r5
 8001cfc:	42a3      	cmp	r3, r4
 8001cfe:	6025      	str	r5, [r4, #0]
 8001d00:	bf18      	it	ne
 8001d02:	6059      	strne	r1, [r3, #4]
 8001d04:	6863      	ldr	r3, [r4, #4]
 8001d06:	bf08      	it	eq
 8001d08:	f8c8 1000 	streq.w	r1, [r8]
 8001d0c:	5162      	str	r2, [r4, r5]
 8001d0e:	604b      	str	r3, [r1, #4]
 8001d10:	4630      	mov	r0, r6
 8001d12:	f000 f82f 	bl	8001d74 <__malloc_unlock>
 8001d16:	f104 000b 	add.w	r0, r4, #11
 8001d1a:	1d23      	adds	r3, r4, #4
 8001d1c:	f020 0007 	bic.w	r0, r0, #7
 8001d20:	1ac2      	subs	r2, r0, r3
 8001d22:	bf1c      	itt	ne
 8001d24:	1a1b      	subne	r3, r3, r0
 8001d26:	50a3      	strne	r3, [r4, r2]
 8001d28:	e7af      	b.n	8001c8a <_malloc_r+0x22>
 8001d2a:	6862      	ldr	r2, [r4, #4]
 8001d2c:	42a3      	cmp	r3, r4
 8001d2e:	bf0c      	ite	eq
 8001d30:	f8c8 2000 	streq.w	r2, [r8]
 8001d34:	605a      	strne	r2, [r3, #4]
 8001d36:	e7eb      	b.n	8001d10 <_malloc_r+0xa8>
 8001d38:	4623      	mov	r3, r4
 8001d3a:	6864      	ldr	r4, [r4, #4]
 8001d3c:	e7ae      	b.n	8001c9c <_malloc_r+0x34>
 8001d3e:	463c      	mov	r4, r7
 8001d40:	687f      	ldr	r7, [r7, #4]
 8001d42:	e7b6      	b.n	8001cb2 <_malloc_r+0x4a>
 8001d44:	461a      	mov	r2, r3
 8001d46:	685b      	ldr	r3, [r3, #4]
 8001d48:	42a3      	cmp	r3, r4
 8001d4a:	d1fb      	bne.n	8001d44 <_malloc_r+0xdc>
 8001d4c:	2300      	movs	r3, #0
 8001d4e:	6053      	str	r3, [r2, #4]
 8001d50:	e7de      	b.n	8001d10 <_malloc_r+0xa8>
 8001d52:	230c      	movs	r3, #12
 8001d54:	4630      	mov	r0, r6
 8001d56:	6033      	str	r3, [r6, #0]
 8001d58:	f000 f80c 	bl	8001d74 <__malloc_unlock>
 8001d5c:	e794      	b.n	8001c88 <_malloc_r+0x20>
 8001d5e:	6005      	str	r5, [r0, #0]
 8001d60:	e7d6      	b.n	8001d10 <_malloc_r+0xa8>
 8001d62:	bf00      	nop
 8001d64:	2000034c 	.word	0x2000034c

08001d68 <__malloc_lock>:
 8001d68:	4801      	ldr	r0, [pc, #4]	@ (8001d70 <__malloc_lock+0x8>)
 8001d6a:	f7ff bf11 	b.w	8001b90 <__retarget_lock_acquire_recursive>
 8001d6e:	bf00      	nop
 8001d70:	20000344 	.word	0x20000344

08001d74 <__malloc_unlock>:
 8001d74:	4801      	ldr	r0, [pc, #4]	@ (8001d7c <__malloc_unlock+0x8>)
 8001d76:	f7ff bf0c 	b.w	8001b92 <__retarget_lock_release_recursive>
 8001d7a:	bf00      	nop
 8001d7c:	20000344 	.word	0x20000344

08001d80 <__ssputs_r>:
 8001d80:	e92d 47f0 	stmdb	sp!, {r4, r5, r6, r7, r8, r9, sl, lr}
 8001d84:	461f      	mov	r7, r3
 8001d86:	688e      	ldr	r6, [r1, #8]
 8001d88:	4682      	mov	sl, r0
 8001d8a:	42be      	cmp	r6, r7
 8001d8c:	460c      	mov	r4, r1
 8001d8e:	4690      	mov	r8, r2
 8001d90:	680b      	ldr	r3, [r1, #0]
 8001d92:	d82d      	bhi.n	8001df0 <__ssputs_r+0x70>
 8001d94:	f9b1 200c 	ldrsh.w	r2, [r1, #12]
 8001d98:	f412 6f90 	tst.w	r2, #1152	@ 0x480
 8001d9c:	d026      	beq.n	8001dec <__ssputs_r+0x6c>
 8001d9e:	6965      	ldr	r5, [r4, #20]
 8001da0:	6909      	ldr	r1, [r1, #16]
 8001da2:	eb05 0545 	add.w	r5, r5, r5, lsl #1
 8001da6:	eba3 0901 	sub.w	r9, r3, r1
 8001daa:	eb05 75d5 	add.w	r5, r5, r5, lsr #31
 8001dae:	1c7b      	adds	r3, r7, #1
 8001db0:	444b      	add	r3, r9
 8001db2:	106d      	asrs	r5, r5, #1
 8001db4:	429d      	cmp	r5, r3
 8001db6:	bf38      	it	cc
 8001db8:	461d      	movcc	r5, r3
 8001dba:	0553      	lsls	r3, r2, #21
 8001dbc:	d527      	bpl.n	8001e0e <__ssputs_r+0x8e>
 8001dbe:	4629      	mov	r1, r5
 8001dc0:	f7ff ff52 	bl	8001c68 <_malloc_r>
 8001dc4:	4606      	mov	r6, r0
 8001dc6:	b360      	cbz	r0, 8001e22 <__ssputs_r+0xa2>
 8001dc8:	464a      	mov	r2, r9
 8001dca:	6921      	ldr	r1, [r4, #16]
 8001dcc:	f000 faf8 	bl	80023c0 <memcpy>
 8001dd0:	89a3      	ldrh	r3, [r4, #12]
 8001dd2:	f423 6390 	bic.w	r3, r3, #1152	@ 0x480
 8001dd6:	f043 0380 	orr.w	r3, r3, #128	@ 0x80
 8001dda:	81a3      	strh	r3, [r4, #12]
 8001ddc:	6126      	str	r6, [r4, #16]
 8001dde:	444e      	add	r6, r9
 8001de0:	6026      	str	r6, [r4, #0]
 8001de2:	463e      	mov	r6, r7
 8001de4:	6165      	str	r5, [r4, #20]
 8001de6:	eba5 0509 	sub.w	r5, r5, r9
 8001dea:	60a5      	str	r5, [r4, #8]
 8001dec:	42be      	cmp	r6, r7
 8001dee:	d900      	bls.n	8001df2 <__ssputs_r+0x72>
 8001df0:	463e      	mov	r6, r7
 8001df2:	4632      	mov	r2, r6
 8001df4:	4641      	mov	r1, r8
 8001df6:	6820      	ldr	r0, [r4, #0]
 8001df8:	f000 faaa 	bl	8002350 <memmove>
 8001dfc:	2000      	movs	r0, #0
 8001dfe:	68a3      	ldr	r3, [r4, #8]
 8001e00:	1b9b      	subs	r3, r3, r6
 8001e02:	60a3      	str	r3, [r4, #8]
 8001e04:	6823      	ldr	r3, [r4, #0]
 8001e06:	4433      	add	r3, r6
 8001e08:	6023      	str	r3, [r4, #0]
 8001e0a:	e8bd 87f0 	ldmia.w	sp!, {r4, r5, r6, r7, r8, r9, sl, pc}
 8001e0e:	462a      	mov	r2, r5
 8001e10:	f000 fae4 	bl	80023dc <_realloc_r>
 8001e14:	4606      	mov	r6, r0
 8001e16:	2800      	cmp	r0, #0
 8001e18:	d1e0      	bne.n	8001ddc <__ssputs_r+0x5c>
 8001e1a:	4650      	mov	r0, sl
 8001e1c:	6921      	ldr	r1, [r4, #16]
 8001e1e:	f7ff feb9 	bl	8001b94 <_free_r>
 8001e22:	230c      	movs	r3, #12
 8001e24:	f8ca 3000 	str.w	r3, [sl]
 8001e28:	89a3      	ldrh	r3, [r4, #12]
 8001e2a:	f04f 30ff 	mov.w	r0, #4294967295
 8001e2e:	f043 0340 	orr.w	r3, r3, #64	@ 0x40
 8001e32:	81a3      	strh	r3, [r4, #12]
 8001e34:	e7e9      	b.n	8001e0a <__ssputs_r+0x8a>
	...

08001e38 <_svfiprintf_r>:
 8001e38:	e92d 4ff0 	stmdb	sp!, {r4, r5, r6, r7, r8, r9, sl, fp, lr}
 8001e3c:	4698      	mov	r8, r3
 8001e3e:	898b      	ldrh	r3, [r1, #12]
 8001e40:	4607      	mov	r7, r0
 8001e42:	061b      	lsls	r3, r3, #24
 8001e44:	460d      	mov	r5, r1
 8001e46:	4614      	mov	r4, r2
 8001e48:	b09d      	sub	sp, #116	@ 0x74
 8001e4a:	d510      	bpl.n	8001e6e <_svfiprintf_r+0x36>
 8001e4c:	690b      	ldr	r3, [r1, #16]
 8001e4e:	b973      	cbnz	r3, 8001e6e <_svfiprintf_r+0x36>
 8001e50:	2140      	movs	r1, #64	@ 0x40
 8001e52:	f7ff ff09 	bl	8001c68 <_malloc_r>
 8001e56:	6028      	str	r0, [r5, #0]
 8001e58:	6128      	str	r0, [r5, #16]
 8001e5a:	b930      	cbnz	r0, 8001e6a <_svfiprintf_r+0x32>
 8001e5c:	230c      	movs	r3, #12
 8001e5e:	603b      	str	r3, [r7, #0]
 8001e60:	f04f 30ff 	mov.w	r0, #4294967295
 8001e64:	b01d      	add	sp, #116	@ 0x74
 8001e66:	e8bd 8ff0 	ldmia.w	sp!, {r4, r5, r6, r7, r8, r9, sl, fp, pc}
 8001e6a:	2340      	movs	r3, #64	@ 0x40
 8001e6c:	616b      	str	r3, [r5, #20]
 8001e6e:	2300      	movs	r3, #0
 8001e70:	9309      	str	r3, [sp, #36]	@ 0x24
 8001e72:	2320      	movs	r3, #32
 8001e74:	f88d 3029 	strb.w	r3, [sp, #41]	@ 0x29
 8001e78:	2330      	movs	r3, #48	@ 0x30
 8001e7a:	f04f 0901 	mov.w	r9, #1
 8001e7e:	f8cd 800c 	str.w	r8, [sp, #12]
 8001e82:	f8df 8198 	ldr.w	r8, [pc, #408]	@ 800201c <_svfiprintf_r+0x1e4>
 8001e86:	f88d 302a 	strb.w	r3, [sp, #42]	@ 0x2a
 8001e8a:	4623      	mov	r3, r4
 8001e8c:	469a      	mov	sl, r3
 8001e8e:	f813 2b01 	ldrb.w	r2, [r3], #1
 8001e92:	b10a      	cbz	r2, 8001e98 <_svfiprintf_r+0x60>
 8001e94:	2a25      	cmp	r2, #37	@ 0x25
 8001e96:	d1f9      	bne.n	8001e8c <_svfiprintf_r+0x54>
 8001e98:	ebba 0b04 	subs.w	fp, sl, r4
 8001e9c:	d00b      	beq.n	8001eb6 <_svfiprintf_r+0x7e>
 8001e9e:	465b      	mov	r3, fp
 8001ea0:	4622      	mov	r2, r4
 8001ea2:	4629      	mov	r1, r5
 8001ea4:	4638      	mov	r0, r7
 8001ea6:	f7ff ff6b 	bl	8001d80 <__ssputs_r>
 8001eaa:	3001      	adds	r0, #1
 8001eac:	f000 80a7 	beq.w	8001ffe <_svfiprintf_r+0x1c6>
 8001eb0:	9a09      	ldr	r2, [sp, #36]	@ 0x24
 8001eb2:	445a      	add	r2, fp
 8001eb4:	9209      	str	r2, [sp, #36]	@ 0x24
 8001eb6:	f89a 3000 	ldrb.w	r3, [sl]
 8001eba:	2b00      	cmp	r3, #0
 8001ebc:	f000 809f 	beq.w	8001ffe <_svfiprintf_r+0x1c6>
 8001ec0:	2300      	movs	r3, #0
 8001ec2:	f04f 32ff 	mov.w	r2, #4294967295
 8001ec6:	e9cd 2305 	strd	r2, r3, [sp, #20]
 8001eca:	f10a 0a01 	add.w	sl, sl, #1
 8001ece:	9304      	str	r3, [sp, #16]
 8001ed0:	9307      	str	r3, [sp, #28]
 8001ed2:	f88d 3053 	strb.w	r3, [sp, #83]	@ 0x53
 8001ed6:	931a      	str	r3, [sp, #104]	@ 0x68
 8001ed8:	4654      	mov	r4, sl
 8001eda:	2205      	movs	r2, #5
 8001edc:	f814 1b01 	ldrb.w	r1, [r4], #1
 8001ee0:	484e      	ldr	r0, [pc, #312]	@ (800201c <_svfiprintf_r+0x1e4>)
 8001ee2:	f000 fa5f 	bl	80023a4 <memchr>
 8001ee6:	9a04      	ldr	r2, [sp, #16]
 8001ee8:	b9d8      	cbnz	r0, 8001f22 <_svfiprintf_r+0xea>
 8001eea:	06d0      	lsls	r0, r2, #27
 8001eec:	bf44      	itt	mi
 8001eee:	2320      	movmi	r3, #32
 8001ef0:	f88d 3053 	strbmi.w	r3, [sp, #83]	@ 0x53
 8001ef4:	0711      	lsls	r1, r2, #28
 8001ef6:	bf44      	itt	mi
 8001ef8:	232b      	movmi	r3, #43	@ 0x2b
 8001efa:	f88d 3053 	strbmi.w	r3, [sp, #83]	@ 0x53
 8001efe:	f89a 3000 	ldrb.w	r3, [sl]
 8001f02:	2b2a      	cmp	r3, #42	@ 0x2a
 8001f04:	d015      	beq.n	8001f32 <_svfiprintf_r+0xfa>
 8001f06:	4654      	mov	r4, sl
 8001f08:	2000      	movs	r0, #0
 8001f0a:	f04f 0c0a 	mov.w	ip, #10
 8001f0e:	9a07      	ldr	r2, [sp, #28]
 8001f10:	4621      	mov	r1, r4
 8001f12:	f811 3b01 	ldrb.w	r3, [r1], #1
 8001f16:	3b30      	subs	r3, #48	@ 0x30
 8001f18:	2b09      	cmp	r3, #9
 8001f1a:	d94b      	bls.n	8001fb4 <_svfiprintf_r+0x17c>
 8001f1c:	b1b0      	cbz	r0, 8001f4c <_svfiprintf_r+0x114>
 8001f1e:	9207      	str	r2, [sp, #28]
 8001f20:	e014      	b.n	8001f4c <_svfiprintf_r+0x114>
 8001f22:	eba0 0308 	sub.w	r3, r0, r8
 8001f26:	fa09 f303 	lsl.w	r3, r9, r3
 8001f2a:	4313      	orrs	r3, r2
 8001f2c:	46a2      	mov	sl, r4
 8001f2e:	9304      	str	r3, [sp, #16]
 8001f30:	e7d2      	b.n	8001ed8 <_svfiprintf_r+0xa0>
 8001f32:	9b03      	ldr	r3, [sp, #12]
 8001f34:	1d19      	adds	r1, r3, #4
 8001f36:	681b      	ldr	r3, [r3, #0]
 8001f38:	9103      	str	r1, [sp, #12]
 8001f3a:	2b00      	cmp	r3, #0
 8001f3c:	bfbb      	ittet	lt
 8001f3e:	425b      	neglt	r3, r3
 8001f40:	f042 0202 	orrlt.w	r2, r2, #2
 8001f44:	9307      	strge	r3, [sp, #28]
 8001f46:	9307      	strlt	r3, [sp, #28]
 8001f48:	bfb8      	it	lt
 8001f4a:	9204      	strlt	r2, [sp, #16]
 8001f4c:	7823      	ldrb	r3, [r4, #0]
 8001f4e:	2b2e      	cmp	r3, #46	@ 0x2e
 8001f50:	d10a      	bne.n	8001f68 <_svfiprintf_r+0x130>
 8001f52:	7863      	ldrb	r3, [r4, #1]
 8001f54:	2b2a      	cmp	r3, #42	@ 0x2a
 8001f56:	d132      	bne.n	8001fbe <_svfiprintf_r+0x186>
 8001f58:	9b03      	ldr	r3, [sp, #12]
 8001f5a:	3402      	adds	r4, #2
 8001f5c:	1d1a      	adds	r2, r3, #4
 8001f5e:	681b      	ldr	r3, [r3, #0]
 8001f60:	9203      	str	r2, [sp, #12]
 8001f62:	ea43 73e3 	orr.w	r3, r3, r3, asr #31
 8001f66:	9305      	str	r3, [sp, #20]
 8001f68:	f8df a0b4 	ldr.w	sl, [pc, #180]	@ 8002020 <_svfiprintf_r+0x1e8>
 8001f6c:	2203      	movs	r2, #3
 8001f6e:	4650      	mov	r0, sl
 8001f70:	7821      	ldrb	r1, [r4, #0]
 8001f72:	f000 fa17 	bl	80023a4 <memchr>
 8001f76:	b138      	cbz	r0, 8001f88 <_svfiprintf_r+0x150>
 8001f78:	2240      	movs	r2, #64	@ 0x40
 8001f7a:	9b04      	ldr	r3, [sp, #16]
 8001f7c:	eba0 000a 	sub.w	r0, r0, sl
 8001f80:	4082      	lsls	r2, r0
 8001f82:	4313      	orrs	r3, r2
 8001f84:	3401      	adds	r4, #1
 8001f86:	9304      	str	r3, [sp, #16]
 8001f88:	f814 1b01 	ldrb.w	r1, [r4], #1
 8001f8c:	2206      	movs	r2, #6
 8001f8e:	4825      	ldr	r0, [pc, #148]	@ (8002024 <_svfiprintf_r+0x1ec>)
 8001f90:	f88d 1028 	strb.w	r1, [sp, #40]	@ 0x28
 8001f94:	f000 fa06 	bl	80023a4 <memchr>
 8001f98:	2800      	cmp	r0, #0
 8001f9a:	d036      	beq.n	800200a <_svfiprintf_r+0x1d2>
 8001f9c:	4b22      	ldr	r3, [pc, #136]	@ (8002028 <_svfiprintf_r+0x1f0>)
 8001f9e:	bb1b      	cbnz	r3, 8001fe8 <_svfiprintf_r+0x1b0>
 8001fa0:	9b03      	ldr	r3, [sp, #12]
 8001fa2:	3307      	adds	r3, #7
 8001fa4:	f023 0307 	bic.w	r3, r3, #7
 8001fa8:	3308      	adds	r3, #8
 8001faa:	9303      	str	r3, [sp, #12]
 8001fac:	9b09      	ldr	r3, [sp, #36]	@ 0x24
 8001fae:	4433      	add	r3, r6
 8001fb0:	9309      	str	r3, [sp, #36]	@ 0x24
 8001fb2:	e76a      	b.n	8001e8a <_svfiprintf_r+0x52>
 8001fb4:	460c      	mov	r4, r1
 8001fb6:	2001      	movs	r0, #1
 8001fb8:	fb0c 3202 	mla	r2, ip, r2, r3
 8001fbc:	e7a8      	b.n	8001f10 <_svfiprintf_r+0xd8>
 8001fbe:	2300      	movs	r3, #0
 8001fc0:	f04f 0c0a 	mov.w	ip, #10
 8001fc4:	4619      	mov	r1, r3
 8001fc6:	3401      	adds	r4, #1
 8001fc8:	9305      	str	r3, [sp, #20]
 8001fca:	4620      	mov	r0, r4
 8001fcc:	f810 2b01 	ldrb.w	r2, [r0], #1
 8001fd0:	3a30      	subs	r2, #48	@ 0x30
 8001fd2:	2a09      	cmp	r2, #9
 8001fd4:	d903      	bls.n	8001fde <_svfiprintf_r+0x1a6>
 8001fd6:	2b00      	cmp	r3, #0
 8001fd8:	d0c6      	beq.n	8001f68 <_svfiprintf_r+0x130>
 8001fda:	9105      	str	r1, [sp, #20]
 8001fdc:	e7c4      	b.n	8001f68 <_svfiprintf_r+0x130>
 8001fde:	4604      	mov	r4, r0
 8001fe0:	2301      	movs	r3, #1
 8001fe2:	fb0c 2101 	mla	r1, ip, r1, r2
 8001fe6:	e7f0      	b.n	8001fca <_svfiprintf_r+0x192>
 8001fe8:	ab03      	add	r3, sp, #12
 8001fea:	9300      	str	r3, [sp, #0]
 8001fec:	462a      	mov	r2, r5
 8001fee:	4638      	mov	r0, r7
 8001ff0:	4b0e      	ldr	r3, [pc, #56]	@ (800202c <_svfiprintf_r+0x1f4>)
 8001ff2:	a904      	add	r1, sp, #16
 8001ff4:	f3af 8000 	nop.w
 8001ff8:	1c42      	adds	r2, r0, #1
 8001ffa:	4606      	mov	r6, r0
 8001ffc:	d1d6      	bne.n	8001fac <_svfiprintf_r+0x174>
 8001ffe:	89ab      	ldrh	r3, [r5, #12]
 8002000:	065b      	lsls	r3, r3, #25
 8002002:	f53f af2d 	bmi.w	8001e60 <_svfiprintf_r+0x28>
 8002006:	9809      	ldr	r0, [sp, #36]	@ 0x24
 8002008:	e72c      	b.n	8001e64 <_svfiprintf_r+0x2c>
 800200a:	ab03      	add	r3, sp, #12
 800200c:	9300      	str	r3, [sp, #0]
 800200e:	462a      	mov	r2, r5
 8002010:	4638      	mov	r0, r7
 8002012:	4b06      	ldr	r3, [pc, #24]	@ (800202c <_svfiprintf_r+0x1f4>)
 8002014:	a904      	add	r1, sp, #16
 8002016:	f000 f87d 	bl	8002114 <_printf_i>
 800201a:	e7ed      	b.n	8001ff8 <_svfiprintf_r+0x1c0>
 800201c:	08002475 	.word	0x08002475
 8002020:	0800247b 	.word	0x0800247b
 8002024:	0800247f 	.word	0x0800247f
 8002028:	00000000 	.word	0x00000000
 800202c:	08001d81 	.word	0x08001d81

08002030 <_printf_common>:
 8002030:	e92d 47f0 	stmdb	sp!, {r4, r5, r6, r7, r8, r9, sl, lr}
 8002034:	4616      	mov	r6, r2
 8002036:	4698      	mov	r8, r3
 8002038:	688a      	ldr	r2, [r1, #8]
 800203a:	690b      	ldr	r3, [r1, #16]
 800203c:	4607      	mov	r7, r0
 800203e:	4293      	cmp	r3, r2
 8002040:	bfb8      	it	lt
 8002042:	4613      	movlt	r3, r2
 8002044:	6033      	str	r3, [r6, #0]
 8002046:	f891 2043 	ldrb.w	r2, [r1, #67]	@ 0x43
 800204a:	460c      	mov	r4, r1
 800204c:	f8dd 9020 	ldr.w	r9, [sp, #32]
 8002050:	b10a      	cbz	r2, 8002056 <_printf_common+0x26>
 8002052:	3301      	adds	r3, #1
 8002054:	6033      	str	r3, [r6, #0]
 8002056:	6823      	ldr	r3, [r4, #0]
 8002058:	0699      	lsls	r1, r3, #26
 800205a:	bf42      	ittt	mi
 800205c:	6833      	ldrmi	r3, [r6, #0]
 800205e:	3302      	addmi	r3, #2
 8002060:	6033      	strmi	r3, [r6, #0]
 8002062:	6825      	ldr	r5, [r4, #0]
 8002064:	f015 0506 	ands.w	r5, r5, #6
 8002068:	d106      	bne.n	8002078 <_printf_common+0x48>
 800206a:	f104 0a19 	add.w	sl, r4, #25
 800206e:	68e3      	ldr	r3, [r4, #12]
 8002070:	6832      	ldr	r2, [r6, #0]
 8002072:	1a9b      	subs	r3, r3, r2
 8002074:	42ab      	cmp	r3, r5
 8002076:	dc2b      	bgt.n	80020d0 <_printf_common+0xa0>
 8002078:	f894 3043 	ldrb.w	r3, [r4, #67]	@ 0x43
 800207c:	6822      	ldr	r2, [r4, #0]
 800207e:	3b00      	subs	r3, #0
 8002080:	bf18      	it	ne
 8002082:	2301      	movne	r3, #1
 8002084:	0692      	lsls	r2, r2, #26
 8002086:	d430      	bmi.n	80020ea <_printf_common+0xba>
 8002088:	4641      	mov	r1, r8
 800208a:	4638      	mov	r0, r7
 800208c:	f104 0243 	add.w	r2, r4, #67	@ 0x43
 8002090:	47c8      	blx	r9
 8002092:	3001      	adds	r0, #1
 8002094:	d023      	beq.n	80020de <_printf_common+0xae>
 8002096:	6823      	ldr	r3, [r4, #0]
 8002098:	6922      	ldr	r2, [r4, #16]
 800209a:	f003 0306 	and.w	r3, r3, #6
 800209e:	2b04      	cmp	r3, #4
 80020a0:	bf14      	ite	ne
 80020a2:	2500      	movne	r5, #0
 80020a4:	6833      	ldreq	r3, [r6, #0]
 80020a6:	f04f 0600 	mov.w	r6, #0
 80020aa:	bf08      	it	eq
 80020ac:	68e5      	ldreq	r5, [r4, #12]
 80020ae:	f104 041a 	add.w	r4, r4, #26
 80020b2:	bf08      	it	eq
 80020b4:	1aed      	subeq	r5, r5, r3
 80020b6:	f854 3c12 	ldr.w	r3, [r4, #-18]
 80020ba:	bf08      	it	eq
 80020bc:	ea25 75e5 	biceq.w	r5, r5, r5, asr #31
 80020c0:	4293      	cmp	r3, r2
 80020c2:	bfc4      	itt	gt
 80020c4:	1a9b      	subgt	r3, r3, r2
 80020c6:	18ed      	addgt	r5, r5, r3
 80020c8:	42b5      	cmp	r5, r6
 80020ca:	d11a      	bne.n	8002102 <_printf_common+0xd2>
 80020cc:	2000      	movs	r0, #0
 80020ce:	e008      	b.n	80020e2 <_printf_common+0xb2>
 80020d0:	2301      	movs	r3, #1
 80020d2:	4652      	mov	r2, sl
 80020d4:	4641      	mov	r1, r8
 80020d6:	4638      	mov	r0, r7
 80020d8:	47c8      	blx	r9
 80020da:	3001      	adds	r0, #1
 80020dc:	d103      	bne.n	80020e6 <_printf_common+0xb6>
 80020de:	f04f 30ff 	mov.w	r0, #4294967295
 80020e2:	e8bd 87f0 	ldmia.w	sp!, {r4, r5, r6, r7, r8, r9, sl, pc}
 80020e6:	3501      	adds	r5, #1
 80020e8:	e7c1      	b.n	800206e <_printf_common+0x3e>
 80020ea:	2030      	movs	r0, #48	@ 0x30
 80020ec:	18e1      	adds	r1, r4, r3
 80020ee:	f881 0043 	strb.w	r0, [r1, #67]	@ 0x43
 80020f2:	1c5a      	adds	r2, r3, #1
 80020f4:	f894 1045 	ldrb.w	r1, [r4, #69]	@ 0x45
 80020f8:	4422      	add	r2, r4
 80020fa:	3302      	adds	r3, #2
 80020fc:	f882 1043 	strb.w	r1, [r2, #67]	@ 0x43
 8002100:	e7c2      	b.n	8002088 <_printf_common+0x58>
 8002102:	2301      	movs	r3, #1
 8002104:	4622      	mov	r2, r4
 8002106:	4641      	mov	r1, r8
 8002108:	4638      	mov	r0, r7
 800210a:	47c8      	blx	r9
 800210c:	3001      	adds	r0, #1
 800210e:	d0e6      	beq.n	80020de <_printf_common+0xae>
 8002110:	3601      	adds	r6, #1
 8002112:	e7d9      	b.n	80020c8 <_printf_common+0x98>

08002114 <_printf_i>:
 8002114:	e92d 47ff 	stmdb	sp!, {r0, r1, r2, r3, r4, r5, r6, r7, r8, r9, sl, lr}
 8002118:	7e0f      	ldrb	r7, [r1, #24]
 800211a:	4691      	mov	r9, r2
 800211c:	2f78      	cmp	r7, #120	@ 0x78
 800211e:	4680      	mov	r8, r0
 8002120:	460c      	mov	r4, r1
 8002122:	469a      	mov	sl, r3
 8002124:	9e0c      	ldr	r6, [sp, #48]	@ 0x30
 8002126:	f101 0243 	add.w	r2, r1, #67	@ 0x43
 800212a:	d807      	bhi.n	800213c <_printf_i+0x28>
 800212c:	2f62      	cmp	r7, #98	@ 0x62
 800212e:	d80a      	bhi.n	8002146 <_printf_i+0x32>
 8002130:	2f00      	cmp	r7, #0
 8002132:	f000 80d1 	beq.w	80022d8 <_printf_i+0x1c4>
 8002136:	2f58      	cmp	r7, #88	@ 0x58
 8002138:	f000 80b8 	beq.w	80022ac <_printf_i+0x198>
 800213c:	f104 0642 	add.w	r6, r4, #66	@ 0x42
 8002140:	f884 7042 	strb.w	r7, [r4, #66]	@ 0x42
 8002144:	e03a      	b.n	80021bc <_printf_i+0xa8>
 8002146:	f1a7 0363 	sub.w	r3, r7, #99	@ 0x63
 800214a:	2b15      	cmp	r3, #21
 800214c:	d8f6      	bhi.n	800213c <_printf_i+0x28>
 800214e:	a101      	add	r1, pc, #4	@ (adr r1, 8002154 <_printf_i+0x40>)
 8002150:	f851 f023 	ldr.w	pc, [r1, r3, lsl #2]
 8002154:	080021ad 	.word	0x080021ad
 8002158:	080021c1 	.word	0x080021c1
 800215c:	0800213d 	.word	0x0800213d
 8002160:	0800213d 	.word	0x0800213d
 8002164:	0800213d 	.word	0x0800213d
 8002168:	0800213d 	.word	0x0800213d
 800216c:	080021c1 	.word	0x080021c1
 8002170:	0800213d 	.word	0x0800213d
 8002174:	0800213d 	.word	0x0800213d
 8002178:	0800213d 	.word	0x0800213d
 800217c:	0800213d 	.word	0x0800213d
 8002180:	080022bf 	.word	0x080022bf
 8002184:	080021eb 	.word	0x080021eb
 8002188:	08002279 	.word	0x08002279
 800218c:	0800213d 	.word	0x0800213d
 8002190:	0800213d 	.word	0x0800213d
 8002194:	080022e1 	.word	0x080022e1
 8002198:	0800213d 	.word	0x0800213d
 800219c:	080021eb 	.word	0x080021eb
 80021a0:	0800213d 	.word	0x0800213d
 80021a4:	0800213d 	.word	0x0800213d
 80021a8:	08002281 	.word	0x08002281
 80021ac:	6833      	ldr	r3, [r6, #0]
 80021ae:	1d1a      	adds	r2, r3, #4
 80021b0:	681b      	ldr	r3, [r3, #0]
 80021b2:	6032      	str	r2, [r6, #0]
 80021b4:	f104 0642 	add.w	r6, r4, #66	@ 0x42
 80021b8:	f884 3042 	strb.w	r3, [r4, #66]	@ 0x42
 80021bc:	2301      	movs	r3, #1
 80021be:	e09c      	b.n	80022fa <_printf_i+0x1e6>
 80021c0:	6833      	ldr	r3, [r6, #0]
 80021c2:	6820      	ldr	r0, [r4, #0]
 80021c4:	1d19      	adds	r1, r3, #4
 80021c6:	6031      	str	r1, [r6, #0]
 80021c8:	0606      	lsls	r6, r0, #24
 80021ca:	d501      	bpl.n	80021d0 <_printf_i+0xbc>
 80021cc:	681d      	ldr	r5, [r3, #0]
 80021ce:	e003      	b.n	80021d8 <_printf_i+0xc4>
 80021d0:	0645      	lsls	r5, r0, #25
 80021d2:	d5fb      	bpl.n	80021cc <_printf_i+0xb8>
 80021d4:	f9b3 5000 	ldrsh.w	r5, [r3]
 80021d8:	2d00      	cmp	r5, #0
 80021da:	da03      	bge.n	80021e4 <_printf_i+0xd0>
 80021dc:	232d      	movs	r3, #45	@ 0x2d
 80021de:	426d      	negs	r5, r5
 80021e0:	f884 3043 	strb.w	r3, [r4, #67]	@ 0x43
 80021e4:	230a      	movs	r3, #10
 80021e6:	4858      	ldr	r0, [pc, #352]	@ (8002348 <_printf_i+0x234>)
 80021e8:	e011      	b.n	800220e <_printf_i+0xfa>
 80021ea:	6821      	ldr	r1, [r4, #0]
 80021ec:	6833      	ldr	r3, [r6, #0]
 80021ee:	0608      	lsls	r0, r1, #24
 80021f0:	f853 5b04 	ldr.w	r5, [r3], #4
 80021f4:	d402      	bmi.n	80021fc <_printf_i+0xe8>
 80021f6:	0649      	lsls	r1, r1, #25
 80021f8:	bf48      	it	mi
 80021fa:	b2ad      	uxthmi	r5, r5
 80021fc:	2f6f      	cmp	r7, #111	@ 0x6f
 80021fe:	6033      	str	r3, [r6, #0]
 8002200:	bf14      	ite	ne
 8002202:	230a      	movne	r3, #10
 8002204:	2308      	moveq	r3, #8
 8002206:	4850      	ldr	r0, [pc, #320]	@ (8002348 <_printf_i+0x234>)
 8002208:	2100      	movs	r1, #0
 800220a:	f884 1043 	strb.w	r1, [r4, #67]	@ 0x43
 800220e:	6866      	ldr	r6, [r4, #4]
 8002210:	2e00      	cmp	r6, #0
 8002212:	60a6      	str	r6, [r4, #8]
 8002214:	db05      	blt.n	8002222 <_printf_i+0x10e>
 8002216:	6821      	ldr	r1, [r4, #0]
 8002218:	432e      	orrs	r6, r5
 800221a:	f021 0104 	bic.w	r1, r1, #4
 800221e:	6021      	str	r1, [r4, #0]
 8002220:	d04b      	beq.n	80022ba <_printf_i+0x1a6>
 8002222:	4616      	mov	r6, r2
 8002224:	fbb5 f1f3 	udiv	r1, r5, r3
 8002228:	fb03 5711 	mls	r7, r3, r1, r5
 800222c:	5dc7      	ldrb	r7, [r0, r7]
 800222e:	f806 7d01 	strb.w	r7, [r6, #-1]!
 8002232:	462f      	mov	r7, r5
 8002234:	42bb      	cmp	r3, r7
 8002236:	460d      	mov	r5, r1
 8002238:	d9f4      	bls.n	8002224 <_printf_i+0x110>
 800223a:	2b08      	cmp	r3, #8
 800223c:	d10b      	bne.n	8002256 <_printf_i+0x142>
 800223e:	6823      	ldr	r3, [r4, #0]
 8002240:	07df      	lsls	r7, r3, #31
 8002242:	d508      	bpl.n	8002256 <_printf_i+0x142>
 8002244:	6923      	ldr	r3, [r4, #16]
 8002246:	6861      	ldr	r1, [r4, #4]
 8002248:	4299      	cmp	r1, r3
 800224a:	bfde      	ittt	le
 800224c:	2330      	movle	r3, #48	@ 0x30
 800224e:	f806 3c01 	strble.w	r3, [r6, #-1]
 8002252:	f106 36ff 	addle.w	r6, r6, #4294967295
 8002256:	1b92      	subs	r2, r2, r6
 8002258:	6122      	str	r2, [r4, #16]
 800225a:	464b      	mov	r3, r9
 800225c:	4621      	mov	r1, r4
 800225e:	4640      	mov	r0, r8
 8002260:	f8cd a000 	str.w	sl, [sp]
 8002264:	aa03      	add	r2, sp, #12
 8002266:	f7ff fee3 	bl	8002030 <_printf_common>
 800226a:	3001      	adds	r0, #1
 800226c:	d14a      	bne.n	8002304 <_printf_i+0x1f0>
 800226e:	f04f 30ff 	mov.w	r0, #4294967295
 8002272:	b004      	add	sp, #16
 8002274:	e8bd 87f0 	ldmia.w	sp!, {r4, r5, r6, r7, r8, r9, sl, pc}
 8002278:	6823      	ldr	r3, [r4, #0]
 800227a:	f043 0320 	orr.w	r3, r3, #32
 800227e:	6023      	str	r3, [r4, #0]
 8002280:	2778      	movs	r7, #120	@ 0x78
 8002282:	4832      	ldr	r0, [pc, #200]	@ (800234c <_printf_i+0x238>)
 8002284:	f884 7045 	strb.w	r7, [r4, #69]	@ 0x45
 8002288:	6823      	ldr	r3, [r4, #0]
 800228a:	6831      	ldr	r1, [r6, #0]
 800228c:	061f      	lsls	r7, r3, #24
 800228e:	f851 5b04 	ldr.w	r5, [r1], #4
 8002292:	d402      	bmi.n	800229a <_printf_i+0x186>
 8002294:	065f      	lsls	r7, r3, #25
 8002296:	bf48      	it	mi
 8002298:	b2ad      	uxthmi	r5, r5
 800229a:	6031      	str	r1, [r6, #0]
 800229c:	07d9      	lsls	r1, r3, #31
 800229e:	bf44      	itt	mi
 80022a0:	f043 0320 	orrmi.w	r3, r3, #32
 80022a4:	6023      	strmi	r3, [r4, #0]
 80022a6:	b11d      	cbz	r5, 80022b0 <_printf_i+0x19c>
 80022a8:	2310      	movs	r3, #16
 80022aa:	e7ad      	b.n	8002208 <_printf_i+0xf4>
 80022ac:	4826      	ldr	r0, [pc, #152]	@ (8002348 <_printf_i+0x234>)
 80022ae:	e7e9      	b.n	8002284 <_printf_i+0x170>
 80022b0:	6823      	ldr	r3, [r4, #0]
 80022b2:	f023 0320 	bic.w	r3, r3, #32
 80022b6:	6023      	str	r3, [r4, #0]
 80022b8:	e7f6      	b.n	80022a8 <_printf_i+0x194>
 80022ba:	4616      	mov	r6, r2
 80022bc:	e7bd      	b.n	800223a <_printf_i+0x126>
 80022be:	6833      	ldr	r3, [r6, #0]
 80022c0:	6825      	ldr	r5, [r4, #0]
 80022c2:	1d18      	adds	r0, r3, #4
 80022c4:	6961      	ldr	r1, [r4, #20]
 80022c6:	6030      	str	r0, [r6, #0]
 80022c8:	062e      	lsls	r6, r5, #24
 80022ca:	681b      	ldr	r3, [r3, #0]
 80022cc:	d501      	bpl.n	80022d2 <_printf_i+0x1be>
 80022ce:	6019      	str	r1, [r3, #0]
 80022d0:	e002      	b.n	80022d8 <_printf_i+0x1c4>
 80022d2:	0668      	lsls	r0, r5, #25
 80022d4:	d5fb      	bpl.n	80022ce <_printf_i+0x1ba>
 80022d6:	8019      	strh	r1, [r3, #0]
 80022d8:	2300      	movs	r3, #0
 80022da:	4616      	mov	r6, r2
 80022dc:	6123      	str	r3, [r4, #16]
 80022de:	e7bc      	b.n	800225a <_printf_i+0x146>
 80022e0:	6833      	ldr	r3, [r6, #0]
 80022e2:	2100      	movs	r1, #0
 80022e4:	1d1a      	adds	r2, r3, #4
 80022e6:	6032      	str	r2, [r6, #0]
 80022e8:	681e      	ldr	r6, [r3, #0]
 80022ea:	6862      	ldr	r2, [r4, #4]
 80022ec:	4630      	mov	r0, r6
 80022ee:	f000 f859 	bl	80023a4 <memchr>
 80022f2:	b108      	cbz	r0, 80022f8 <_printf_i+0x1e4>
 80022f4:	1b80      	subs	r0, r0, r6
 80022f6:	6060      	str	r0, [r4, #4]
 80022f8:	6863      	ldr	r3, [r4, #4]
 80022fa:	6123      	str	r3, [r4, #16]
 80022fc:	2300      	movs	r3, #0
 80022fe:	f884 3043 	strb.w	r3, [r4, #67]	@ 0x43
 8002302:	e7aa      	b.n	800225a <_printf_i+0x146>
 8002304:	4632      	mov	r2, r6
 8002306:	4649      	mov	r1, r9
 8002308:	4640      	mov	r0, r8
 800230a:	6923      	ldr	r3, [r4, #16]
 800230c:	47d0      	blx	sl
 800230e:	3001      	adds	r0, #1
 8002310:	d0ad      	beq.n	800226e <_printf_i+0x15a>
 8002312:	6823      	ldr	r3, [r4, #0]
 8002314:	079b      	lsls	r3, r3, #30
 8002316:	d413      	bmi.n	8002340 <_printf_i+0x22c>
 8002318:	68e0      	ldr	r0, [r4, #12]
 800231a:	9b03      	ldr	r3, [sp, #12]
 800231c:	4298      	cmp	r0, r3
 800231e:	bfb8      	it	lt
 8002320:	4618      	movlt	r0, r3
 8002322:	e7a6      	b.n	8002272 <_printf_i+0x15e>
 8002324:	2301      	movs	r3, #1
 8002326:	4632      	mov	r2, r6
 8002328:	4649      	mov	r1, r9
 800232a:	4640      	mov	r0, r8
 800232c:	47d0      	blx	sl
 800232e:	3001      	adds	r0, #1
 8002330:	d09d      	beq.n	800226e <_printf_i+0x15a>
 8002332:	3501      	adds	r5, #1
 8002334:	68e3      	ldr	r3, [r4, #12]
 8002336:	9903      	ldr	r1, [sp, #12]
 8002338:	1a5b      	subs	r3, r3, r1
 800233a:	42ab      	cmp	r3, r5
 800233c:	dcf2      	bgt.n	8002324 <_printf_i+0x210>
 800233e:	e7eb      	b.n	8002318 <_printf_i+0x204>
 8002340:	2500      	movs	r5, #0
 8002342:	f104 0619 	add.w	r6, r4, #25
 8002346:	e7f5      	b.n	8002334 <_printf_i+0x220>
 8002348:	08002486 	.word	0x08002486
 800234c:	08002497 	.word	0x08002497

08002350 <memmove>:
 8002350:	4288      	cmp	r0, r1
 8002352:	b510      	push	{r4, lr}
 8002354:	eb01 0402 	add.w	r4, r1, r2
 8002358:	d902      	bls.n	8002360 <memmove+0x10>
 800235a:	4284      	cmp	r4, r0
 800235c:	4623      	mov	r3, r4
 800235e:	d807      	bhi.n	8002370 <memmove+0x20>
 8002360:	1e43      	subs	r3, r0, #1
 8002362:	42a1      	cmp	r1, r4
 8002364:	d008      	beq.n	8002378 <memmove+0x28>
 8002366:	f811 2b01 	ldrb.w	r2, [r1], #1
 800236a:	f803 2f01 	strb.w	r2, [r3, #1]!
 800236e:	e7f8      	b.n	8002362 <memmove+0x12>
 8002370:	4601      	mov	r1, r0
 8002372:	4402      	add	r2, r0
 8002374:	428a      	cmp	r2, r1
 8002376:	d100      	bne.n	800237a <memmove+0x2a>
 8002378:	bd10      	pop	{r4, pc}
 800237a:	f813 4d01 	ldrb.w	r4, [r3, #-1]!
 800237e:	f802 4d01 	strb.w	r4, [r2, #-1]!
 8002382:	e7f7      	b.n	8002374 <memmove+0x24>

08002384 <_sbrk_r>:
 8002384:	b538      	push	{r3, r4, r5, lr}
 8002386:	2300      	movs	r3, #0
 8002388:	4d05      	ldr	r5, [pc, #20]	@ (80023a0 <_sbrk_r+0x1c>)
 800238a:	4604      	mov	r4, r0
 800238c:	4608      	mov	r0, r1
 800238e:	602b      	str	r3, [r5, #0]
 8002390:	f7fe f94a 	bl	8000628 <_sbrk>
 8002394:	1c43      	adds	r3, r0, #1
 8002396:	d102      	bne.n	800239e <_sbrk_r+0x1a>
 8002398:	682b      	ldr	r3, [r5, #0]
 800239a:	b103      	cbz	r3, 800239e <_sbrk_r+0x1a>
 800239c:	6023      	str	r3, [r4, #0]
 800239e:	bd38      	pop	{r3, r4, r5, pc}
 80023a0:	20000340 	.word	0x20000340

080023a4 <memchr>:
 80023a4:	4603      	mov	r3, r0
 80023a6:	b510      	push	{r4, lr}
 80023a8:	b2c9      	uxtb	r1, r1
 80023aa:	4402      	add	r2, r0
 80023ac:	4293      	cmp	r3, r2
 80023ae:	4618      	mov	r0, r3
 80023b0:	d101      	bne.n	80023b6 <memchr+0x12>
 80023b2:	2000      	movs	r0, #0
 80023b4:	e003      	b.n	80023be <memchr+0x1a>
 80023b6:	7804      	ldrb	r4, [r0, #0]
 80023b8:	3301      	adds	r3, #1
 80023ba:	428c      	cmp	r4, r1
 80023bc:	d1f6      	bne.n	80023ac <memchr+0x8>
 80023be:	bd10      	pop	{r4, pc}

080023c0 <memcpy>:
 80023c0:	440a      	add	r2, r1
 80023c2:	4291      	cmp	r1, r2
 80023c4:	f100 33ff 	add.w	r3, r0, #4294967295
 80023c8:	d100      	bne.n	80023cc <memcpy+0xc>
 80023ca:	4770      	bx	lr
 80023cc:	b510      	push	{r4, lr}
 80023ce:	f811 4b01 	ldrb.w	r4, [r1], #1
 80023d2:	4291      	cmp	r1, r2
 80023d4:	f803 4f01 	strb.w	r4, [r3, #1]!
 80023d8:	d1f9      	bne.n	80023ce <memcpy+0xe>
 80023da:	bd10      	pop	{r4, pc}

080023dc <_realloc_r>:
 80023dc:	e92d 41f0 	stmdb	sp!, {r4, r5, r6, r7, r8, lr}
 80023e0:	4607      	mov	r7, r0
 80023e2:	4614      	mov	r4, r2
 80023e4:	460d      	mov	r5, r1
 80023e6:	b921      	cbnz	r1, 80023f2 <_realloc_r+0x16>
 80023e8:	4611      	mov	r1, r2
 80023ea:	e8bd 41f0 	ldmia.w	sp!, {r4, r5, r6, r7, r8, lr}
 80023ee:	f7ff bc3b 	b.w	8001c68 <_malloc_r>
 80023f2:	b92a      	cbnz	r2, 8002400 <_realloc_r+0x24>
 80023f4:	f7ff fbce 	bl	8001b94 <_free_r>
 80023f8:	4625      	mov	r5, r4
 80023fa:	4628      	mov	r0, r5
 80023fc:	e8bd 81f0 	ldmia.w	sp!, {r4, r5, r6, r7, r8, pc}
 8002400:	f000 f81a 	bl	8002438 <_malloc_usable_size_r>
 8002404:	4284      	cmp	r4, r0
 8002406:	4606      	mov	r6, r0
 8002408:	d802      	bhi.n	8002410 <_realloc_r+0x34>
 800240a:	ebb4 0f50 	cmp.w	r4, r0, lsr #1
 800240e:	d8f4      	bhi.n	80023fa <_realloc_r+0x1e>
 8002410:	4621      	mov	r1, r4
 8002412:	4638      	mov	r0, r7
 8002414:	f7ff fc28 	bl	8001c68 <_malloc_r>
 8002418:	4680      	mov	r8, r0
 800241a:	b908      	cbnz	r0, 8002420 <_realloc_r+0x44>
 800241c:	4645      	mov	r5, r8
 800241e:	e7ec      	b.n	80023fa <_realloc_r+0x1e>
 8002420:	42b4      	cmp	r4, r6
 8002422:	4622      	mov	r2, r4
 8002424:	4629      	mov	r1, r5
 8002426:	bf28      	it	cs
 8002428:	4632      	movcs	r2, r6
 800242a:	f7ff ffc9 	bl	80023c0 <memcpy>
 800242e:	4629      	mov	r1, r5
 8002430:	4638      	mov	r0, r7
 8002432:	f7ff fbaf 	bl	8001b94 <_free_r>
 8002436:	e7f1      	b.n	800241c <_realloc_r+0x40>

08002438 <_malloc_usable_size_r>:
 8002438:	f851 3c04 	ldr.w	r3, [r1, #-4]
 800243c:	1f18      	subs	r0, r3, #4
 800243e:	2b00      	cmp	r3, #0
 8002440:	bfbc      	itt	lt
 8002442:	580b      	ldrlt	r3, [r1, r0]
 8002444:	18c0      	addlt	r0, r0, r3
 8002446:	4770      	bx	lr

08002448 <_init>:
 8002448:	b5f8      	push	{r3, r4, r5, r6, r7, lr}
 800244a:	bf00      	nop
 800244c:	bcf8      	pop	{r3, r4, r5, r6, r7}
 800244e:	bc08      	pop	{r3}
 8002450:	469e      	mov	lr, r3
 8002452:	4770      	bx	lr

08002454 <_fini>:
 8002454:	b5f8      	push	{r3, r4, r5, r6, r7, lr}
 8002456:	bf00      	nop
 8002458:	bcf8      	pop	{r3, r4, r5, r6, r7}
 800245a:	bc08      	pop	{r3}
 800245c:	469e      	mov	lr, r3
 800245e:	4770      	bx	lr
